******************************************************************************
                  TI ARM Linker PC v20.2.7                     
******************************************************************************
>> Linked Wed Nov  9 15:57:58 2022

OUTPUT FILE NAME:   <Tivana.out>
ENTRY POINT SYMBOL: "_c_int00_noargs"  address: 00055439


MEMORY CONFIGURATION

         name            origin    length      used     unused   attr    fill
----------------------  --------  ---------  --------  --------  ----  --------
  FLASH                 00000000   00100000  0005aa0e  000a55f2  R  X
  SRAM                  20000000   00040000  000271b6  00018e4a  RW X


SEGMENT ALLOCATION MAP

run origin  load origin   length   init length attrs members
----------  ----------- ---------- ----------- ----- -------
00000000    00000000    0005aa10   0005aa10    r-x
  00000000    00000000    00000208   00000208    r-- .intvecs
  00000208    00000208    000557a2   000557a2    r-x .text
  000559ac    000559ac    00004f2c   00004f2c    r-- .const
  0005a8d8    0005a8d8    00000138   00000138    r-- .cinit
20000000    20000000    000271b8   00000000    rw-
  20000000    20000000    00026d4c   00000000    rw- .bss
  20026d4c    20026d4c    0000025a   00000000    rw- .data
  20026fa8    20026fa8    00000200   00000000    rw- .stack
  200271a8    200271a8    00000010   00000000    rw- .sysmem


SECTION ALLOCATION MAP

 output                                  attributes/
section   page    origin      length       input sections
--------  ----  ----------  ----------   ----------------
.intvecs   0    00000000    00000208     
                  00000000    00000208     tm4c1294ncpdt_startup_ccs.obj (.intvecs)

.text      0    00000208    000557a2     
                  00000208    0000328e     lv_chart.obj (.text)
                  00003496    00000002     rtsv7M4_T_le_v4SPD16_eabi.lib : _lock.c.obj (.text:_nop)
                  00003498    00003178     lv_theme_default.obj (.text)
                  00006610    00002cf6     lv_draw_mask.obj (.text)
                  00009306    00000002     rtsv7M4_T_le_v4SPD16_eabi.lib : div0.asm.obj (.text)
                  00009308    00002904     lv_draw_sw_rect.obj (.text)
                  0000bc0c    000025f8     lv_obj_pos.obj (.text)
                  0000e204    00002124     tasks.obj (.text)
                  00010328    00001e54     FreeRTOS_Sockets.obj (.text)
                  0001217c    00001cc0     lv_obj_scroll.obj (.text)
                  00013e3c    00001c90     lv_btnmatrix.obj (.text)
                  00015acc    00001c80     lv_label.obj (.text)
                  0001774c    00001bf4     lv_draw_sw_blend.obj (.text)
                  00019340    00001bec     lv_textarea.obj (.text)
                  0001af2c    00001bc8     lv_table.obj (.text)
                  0001caf4    000019e8     lv_obj_style.obj (.text)
                  0001e4dc    000019d0     lv_refr.obj (.text)
                  0001feac    00001844     lv_indev.obj (.text)
                  000216f0    00001812     lv_dropdown.obj (.text)
                  00022f02    00000002     --HOLE-- [fill = 0]
                  00022f04    000017f8     lv_arc.obj (.text)
                  000246fc    00001672     lv_obj.obj (.text)
                  00025d6e    00000002     --HOLE-- [fill = 0]
                  00025d70    0000151e     lv_tlsf.obj (.text)
                  0002728e    00000002     --HOLE-- [fill = 0]
                  00027290    000014de     lv_grid.obj (.text)
                  0002876e    00000002     --HOLE-- [fill = 0]
                  00028770    0000133e     lv_flex.obj (.text)
                  00029aae    00000002     --HOLE-- [fill = 0]
                  00029ab0    0000130e     lv_meter.obj (.text)
                  0002adbe    00000002     --HOLE-- [fill = 0]
                  0002adc0    00001278     lv_img.obj (.text)
                  0002c038    00001272     lv_indev_scroll.obj (.text)
                  0002d2aa    00001240     lv_draw_sw_arc.obj (.text)
                  0002e4ea    00000002     --HOLE-- [fill = 0]
                  0002e4ec    000011f0     lv_roller.obj (.text)
                  0002f6dc    000011e8     lv_colorwheel.obj (.text)
                  000308c4    00000ef8     lv_bar.obj (.text)
                  000317bc    00000e78     lv_img_buf.obj (.text)
                  00032634    00000e72     lv_obj_draw.obj (.text)
                  000334a6    00000002     --HOLE-- [fill = 0]
                  000334a8    00000e60     lv_slider.obj (.text)
                  00034308    00000e48     lv_img_decoder.obj (.text)
                  00035150    00000e46     lv_draw_sw_transform.obj (.text)
                  00035f96    00000002     --HOLE-- [fill = 0]
                  00035f98    00000e1c     lv_area.obj (.text)
                  00036db4    00000d58     queue.obj (.text)
                  00037b0c    00000c34     lv_txt.obj (.text)
                  00038740    00000c30     lv_printf.obj (.text)
                  00039370    00000c1a     lv_draw_sw_line.obj (.text)
                  00039f8a    00000002     --HOLE-- [fill = 0]
                  00039f8c    00000c02     lv_menu.obj (.text)
                  0003ab8e    00000bc0     lv_obj_style_gen.obj (.text)
                  0003b74e    00000002     --HOLE-- [fill = 0]
                  0003b750    00000b24     FreeRTOS_IP.obj (.text)
                  0003c274    00000a90     FreeRTOS_TCP_Transmission.obj (.text)
                  0003cd04    00000a4e     rtsv7M4_T_le_v4SPD16_eabi.lib : _printfi.c.obj (.text:__TI_printfi)
                  0003d752    00000002     --HOLE-- [fill = 0]
                  0003d754    00000a10     FreeRTOS_TCP_State_Handling.obj (.text)
                  0003e164    000009fe     lv_event.obj (.text)
                  0003eb62    00000002     --HOLE-- [fill = 0]
                  0003eb64    00000970     lv_fs.obj (.text)
                  0003f4d4    0000091e     lv_disp.obj (.text)
                  0003fdf2    00000002     --HOLE-- [fill = 0]
                  0003fdf4    00000916     lv_group.obj (.text)
                  0004070a    00000002     --HOLE-- [fill = 0]
                  0004070c    000008f8     lv_spinbox.obj (.text)
                  00041004    000008e0     lv_anim.obj (.text)
                  000418e4    000008dc     FreeRTOS_IP_Utils.obj (.text)
                  000421c0    000008ba     lv_draw_label.obj (.text)
                  00042a7a    00000002     --HOLE-- [fill = 0]
                  00042a7c    000008a8     FreeRTOS_ARP.obj (.text)
                  00043324    000008a8     phyHandling.obj (.text)
                  00043bcc    0000089c     lv_style.obj (.text)
                  00044468    00000888     FreeRTOS_DHCP.obj (.text)
                  00044cf0    00000878     lv_style_gen.obj (.text)
                  00045568    00000858     lv_calendar.obj (.text)
                  00045dc0    0000084c     lv_hal_disp.obj (.text)
                  0004660c    0000083a     lv_draw_sw_img.obj (.text)
                  00046e46    00000002     --HOLE-- [fill = 0]
                  00046e48    0000082e     lv_obj_tree.obj (.text)
                  00047676    0000078c     lv_draw_arc.obj (.text)
                  00047e02    00000002     --HOLE-- [fill = 0]
                  00047e04    00000750     lv_tabview.obj (.text)
                  00048554    0000074c     NetworkInterface.obj (.text)
                  00048ca0    000006fc     lv_color.obj (.text)
                  0004939c    000006d8     lv_draw_sw_gradient.obj (.text)
                  00049a74    00000678     lv_checkbox.obj (.text)
                  0004a0ec    00000634     lv_draw_img.obj (.text)
                  0004a720    00000612     lv_draw_sw_letter.obj (.text)
                  0004ad32    00000002     --HOLE-- [fill = 0]
                  0004ad34    00000610     lv_switch.obj (.text)
                  0004b344    000005b8     FreeRTOS_TCP_IP.obj (.text)
                  0004b8fc    000005a6     lv_memcpy_builtin.obj (.text)
                  0004bea2    00000002     --HOLE-- [fill = 0]
                  0004bea4    0000056c     lv_font_fmt_txt.obj (.text)
                  0004c410    00000538     lv_draw_sw_polygon.obj (.text)
                  0004c948    0000051c     lv_keyboard.obj (.text)
                  0004ce64    000004a8     uartstdio.obj (.text)
                  0004d30c    00000498     ST7735.obj (.text)
                  0004d7a4    00000480     lv_led.obj (.text)
                  0004dc24    00000458     lv_ll.obj (.text)
                  0004e07c    00000450     lv_math.obj (.text)
                  0004e4cc    00000436     lv_draw_sw.obj (.text)
                  0004e902    00000002     --HOLE-- [fill = 0]
                  0004e904    000003c8     event_groups.obj (.text)
                  0004eccc    000003a0     heap_4.obj (.text)
                  0004f06c    0000039e     lv_line.obj (.text)
                  0004f40a    0000038e     FreeRTOS_TCP_Reception.obj (.text)
                  0004f798    0000036a     FreeRTOS_Stream_Buffer.obj (.text)
                  0004fb02    00000002     --HOLE-- [fill = 0]
                  0004fb04    00000368     rtos_hw_drivers.obj (.text)
                  0004fe6c    00000354     lv_timer.obj (.text)
                  000501c0    0000034c     lv_tileview.obj (.text)
                  0005050c    00000324     FreeRTOS_CLI.obj (.text)
                  00050830    000002fa     lv_obj_class.obj (.text)
                  00050b2a    00000002     --HOLE-- [fill = 0]
                  00050b2c    000002f8     FreeRTOS_Tiny_TCP.obj (.text)
                  00050e24    000002c8     main.obj (.text)
                  000510ec    000002bc     cli_commands.obj (.text)
                  000513a8    0000028e     lv_draw_sw_layer.obj (.text)
                  00051636    00000002     --HOLE-- [fill = 0]
                  00051638    00000288     FreeRTOS_IP_Timers.obj (.text)
                  000518c0    00000270     rtsv7M4_T_le_v4SPD16_eabi.lib : _printfi.c.obj (.text:_pconv_a)
                  00051b30    0000024c     lv_calendar_header_arrow.obj (.text)
                  00051d7c    00000238     BufferAllocation_1.obj (.text)
                  00051fb4    00000200     driverlib.lib : sysctl.obj (.text:SysCtlClockFreqSet)
                  000521b4    000001e4     FreeRTOS_UDP_IP.obj (.text)
                  00052398    000001dc     lv_hal_indev.obj (.text)
                  00052574    000001d0     rtsv7M4_T_le_v4SPD16_eabi.lib : _printfi.c.obj (.text:_pconv_g)
                  00052744    000001b6                                   : fd_add_t2.asm.obj (.text)
                  000528fa    00000002     --HOLE-- [fill = 0]
                  000528fc    000001b0     lv_calendar_header_dropdown.obj (.text)
                  00052aac    0000018c     lv_malloc_builtin.obj (.text)
                  00052c38    0000017c     lv_spinner.obj (.text)
                  00052db4    0000016c     driverlib.lib : gpio.obj (.text:GPIOPadConfigSet)
                  00052f20    00000168     lv_draw_rect.obj (.text)
                  00053088    0000014c     lv_win.obj (.text)
                  000531d4    0000014c     thread_display.obj (.text)
                  00053320    00000148     lv_font.obj (.text)
                  00053468    00000140     lv_theme.obj (.text)
                  000535a8    0000013c     rtsv7M4_T_le_v4SPD16_eabi.lib : _printfi.c.obj (.text:_pconv_e)
                  000536e4    0000013c     port.obj (.text)
                  00053820    00000136     rtsv7M4_T_le_v4SPD16_eabi.lib : fd_div_t2.asm.obj (.text)
                  00053956    00000002     --HOLE-- [fill = 0]
                  00053958    0000012c     FreeRTOS_TCP_WIN.obj (.text)
                  00053a84    0000012a     list.obj (.text)
                  00053bae    00000002     --HOLE-- [fill = 0]
                  00053bb0    00000124     rtsv7M4_T_le_v4SPD16_eabi.lib : _printfi.c.obj (.text:fcvt)
                  00053cd4    00000124     lv_draw_layer.obj (.text)
                  00053df8    00000118     driverlib.lib : sysctl.obj (.text:SysCtlClockGet)
                  00053f10    00000110     rtsv7M4_T_le_v4SPD16_eabi.lib : s_scalbn.c.obj (.text:scalbn)
                  00054020    000000fc                                   : fd_mul_t2.asm.obj (.text)
                  0005411c    000000f0     lv_gc.obj (.text)
                  0005420c    000000f0     lv_mem.obj (.text)
                  000542fc    000000dc     lv_async.obj (.text)
                  000543d8    000000da     portasm.obj (.text)
                  000544b2    000000be     lv_draw_line.obj (.text)
                  00054570    000000b4     FreeRTOS_ICMP.obj (.text)
                  00054624    000000b1     rtsv7M4_T_le_v4SPD16_eabi.lib : _printfi.c.obj (.text:_ltostr)
                  000546d5    00000003     --HOLE-- [fill = 0]
                  000546d8    0000009c     lv_img_cache.obj (.text)
                  00054774    0000009c     rtsv7M4_T_le_v4SPD16_eabi.lib : memcpy_t2.asm.obj (.text)
                  00054810    00000096                                   : ull_div_t2.asm.obj (.text)
                  000548a6    00000086                                   : fd_cmp_t2.asm.obj (.text:__aeabi_cdcmple)
                  0005492c    00000086                                   : fd_cmp_t2.asm.obj (.text:__aeabi_cdrcmple)
                  000549b2    0000007a                                   : memset_t2.asm.obj (.text)
                  00054a2c    00000078     driverlib.lib : emac.obj (.text:EMACInit)
                  00054aa4    00000074     lv_hal_tick.obj (.text)
                  00054b18    00000074     lv_utils.obj (.text)
                  00054b8c    0000006e     rtsv7M4_T_le_v4SPD16_eabi.lib : _printfi.c.obj (.text:_mcpy)
                  00054bfa    00000002     --HOLE-- [fill = 0]
                  00054bfc    00000068     driverlib.lib : interrupt.obj (.text:IntEnable)
                  00054c64    00000068     rtsv7M4_T_le_v4SPD16_eabi.lib : copy_decompress_lzss.c.obj (.text:decompress:lzss:__TI_decompress_lzss)
                  00054ccc    00000064                                   : s_frexp.c.obj (.text:frexp)
                  00054d30    00000060     FreeRTOS_TCP_Utils.obj (.text)
                  00054d90    0000005e     rtsv7M4_T_le_v4SPD16_eabi.lib : i_divt2.asm.obj (.text)
                  00054dee    00000056                                   : _printfi.c.obj (.text:_pconv_f)
                  00054e44    00000054                                   : _ltoa.c.obj (.text:__TI_ltoa)
                  00054e98    00000052                                   : _printfi.c.obj (.text:_ecpy)
                  00054eea    00000002     --HOLE-- [fill = 0]
                  00054eec    00000050     driverlib.lib : sysctl.obj (.text:SysCtlPeripheralReset)
                  00054f3c    00000050     lv_draw_transform.obj (.text)
                  00054f8c    0000004c     driverlib.lib : gpio.obj (.text:GPIOPinConfigure)
                  00054fd8    0000004c     rtsv7M4_T_le_v4SPD16_eabi.lib : atoi.c.obj (.text:atoi)
                  00055024    0000004c                                   : snprintf.c.obj (.text:snprintf)
                  00055070    00000048     driverlib.lib : sysctl.obj (.text:_SysCtlFrequencyGet)
                  000550b8    00000048     rtsv7M4_T_le_v4SPD16_eabi.lib : fd_toi_t2.asm.obj (.text)
                  00055100    00000046     driverlib.lib : uart.obj (.text:UARTConfigSetExpClk)
                  00055146    00000002     --HOLE-- [fill = 0]
                  00055148    00000044     rtsv7M4_T_le_v4SPD16_eabi.lib : autoinit.c.obj (.text:__TI_auto_init_nobinit_nopinit:__TI_auto_init_nobinit_nopinit)
                  0005518c    00000040                                   : u_divt2.asm.obj (.text)
                  000551cc    00000040                                   : sprintf.c.obj (.text:sprintf)
                  0005520c    0000003e                                   : _printfi.c.obj (.text:_fcpy)
                  0005524a    0000003a     driverlib.lib : emac.obj (.text:EMACIntEnable)
                  00055284    00000038                   : emac.obj (.text:EMACConfigSet)
                  000552bc    00000038                   : sysctl.obj (.text:SysCtlPeripheralPresent)
                  000552f4    00000038                   : sysctl.obj (.text:SysCtlPeripheralReady)
                  0005532c    00000038     lv_btn.obj (.text)
                  00055364    00000036     rtsv7M4_T_le_v4SPD16_eabi.lib : strncpy.c.obj (.text:strncpy)
                  0005539a    00000002     --HOLE-- [fill = 0]
                  0005539c    00000034     driverlib.lib : emac.obj (.text:EMACConfigGet)
                  000553d0    00000034                   : emac.obj (.text:EMACIntClear)
                  00055404    00000034                   : sysctl.obj (.text:SysCtlPeripheralEnable)
                  00055438    00000034     rtsv7M4_T_le_v4SPD16_eabi.lib : boot_cortex_m.c.obj (.text:_c_int00_noargs:_c_int00_noargs)
                  0005546c    00000034                                   : rand.c.obj (.text:rand)
                  000554a0    00000030     driverlib.lib : emac.obj (.text:EMACAddrSet)
                  000554d0    00000030     rtsv7M4_T_le_v4SPD16_eabi.lib : snprintf.c.obj (.text:_outs)
                  00055500    00000030     thread_cli.obj (.text)
                  00055530    0000002e     rtsv7M4_T_le_v4SPD16_eabi.lib : i_tofd_t2.asm.obj (.text)
                  0005555e    0000002c     driverlib.lib : emac.obj (.text:EMACIntStatus)
                  0005558a    0000002c                   : gpio.obj (.text:GPIODirModeSet)
                  000555b6    0000002c     rtsv7M4_T_le_v4SPD16_eabi.lib : strncmp.c.obj (.text:strncmp)
                  000555e2    00000028                                   : memmov.c.obj (.text:memmove)
                  0005560a    00000026     driverlib.lib : emac.obj (.text:EMACPHYRead)
                  00055630    00000026                   : emac.obj (.text:EMACPHYWrite)
                  00055656    00000002     --HOLE-- [fill = 0]
                  00055658    00000024                   : interrupt.obj (.text:IntPrioritySet)
                  0005567c    00000024     rtsv7M4_T_le_v4SPD16_eabi.lib : memcmp.c.obj (.text:memcmp)
                  000556a0    00000020     driverlib.lib : uart.obj (.text:UARTDisable)
                  000556c0    00000020                   : sysctl.obj (.text:_SysCtlMemTimingGet)
                  000556e0    0000001e     rtsv7M4_T_le_v4SPD16_eabi.lib : strcat.c.obj (.text:strcat)
                  000556fe    0000001c                                   : memccpy.c.obj (.text:memccpy)
                  0005571a    0000001a     driverlib.lib : gpio.obj (.text:GPIOPinTypeGPIOOutput)
                  00055734    0000001a     rtsv7M4_T_le_v4SPD16_eabi.lib : s_copysign.c.obj (.text:copysign)
                  0005574e    00000018                                   : snprintf.c.obj (.text:_outc)
                  00055766    00000018                                   : sprintf.c.obj (.text:_outs)
                  0005577e    00000018     lv_draw.obj (.text)
                  00055796    00000018     rtsv7M4_T_le_v4SPD16_eabi.lib : ll_mul_t2.asm.obj (.text)
                  000557ae    00000018                                   : strcmp.c.obj (.text:strcmp)
                  000557c6    00000016     driverlib.lib : emac.obj (.text:EMACRxEnable)
                  000557dc    00000016                   : emac.obj (.text:EMACTxEnable)
                  000557f2    00000016                   : gpio.obj (.text:GPIOPinTypeEthernetLED)
                  00055808    00000016                   : gpio.obj (.text:GPIOPinTypeGPIOInput)
                  0005581e    00000016                   : gpio.obj (.text:GPIOPinTypeUART)
                  00055834    00000016                   : gpio.obj (.text:GPIOPinTypeUSBAnalog)
                  0005584a    00000016                   : gpio.obj (.text:GPIOPinTypeUSBDigital)
                  00055860    00000016     rtsv7M4_T_le_v4SPD16_eabi.lib : strchr.c.obj (.text:strchr)
                  00055876    00000002     --HOLE-- [fill = 0]
                  00055878    00000014     driverlib.lib : flash.obj (.text:FlashUserGet)
                  0005588c    00000014                   : uart.obj (.text:UARTEnable)
                  000558a0    00000014     rtsv7M4_T_le_v4SPD16_eabi.lib : strcpy.c.obj (.text:strcpy)
                  000558b4    00000014                                   : strlen.c.obj (.text:strlen)
                  000558c8    00000012                                   : wcslen.c.obj (.text:wcslen)
                  000558da    00000002     --HOLE-- [fill = 0]
                  000558dc    00000010     driverlib.lib : emac.obj (.text:EMACFrameFilterSet)
                  000558ec    00000010                   : interrupt.obj (.text:IntMasterDisable)
                  000558fc    0000000e     rtsv7M4_T_le_v4SPD16_eabi.lib : copy_decompress_none.c.obj (.text:decompress:none:__TI_decompress_none)
                  0005590a    0000000e     thread_modbus.obj (.text)
                  00055918    0000000c     driverlib.lib : cpu.obj (.text:CPUcpsid)
                  00055924    0000000c     rtsv7M4_T_le_v4SPD16_eabi.lib : copy_zero_init.c.obj (.text:decompress:ZI:__TI_zero_init)
                  00055930    0000000c     tm4c1294ncpdt_startup_ccs.obj (.text)
                  0005593c    0000000a     driverlib.lib : ssi.obj (.text:SSIDataPut)
                  00055946    0000000a                   : uart.obj (.text:UARTCharGet)
                  00055950    0000000a                   : uart.obj (.text:UARTCharPut)
                  0005595a    0000000a     rtsv7M4_T_le_v4SPD16_eabi.lib : sprintf.c.obj (.text:_outc)
                  00055964    00000008     driverlib.lib : emac.obj (.text:EMACPowerManagementStatusGet)
                  0005596c    00000008                   : emac.obj (.text:EMACTxDMAPollDemand)
                  00055974    00000008                   : ssi.obj (.text:SSIBusy)
                  0005597c    00000008     rtsv7M4_T_le_v4SPD16_eabi.lib : errno.c.obj (.text:__aeabi_errno_addr)
                  00055984    00000006     driverlib.lib : emac.obj (.text:EMACRxDMADescriptorListSet)
                  0005598a    00000006                   : emac.obj (.text:EMACTxDMADescriptorListSet)
                  00055990    00000006                   : gpio.obj (.text:GPIOPinRead)
                  00055996    00000006                   : gpio.obj (.text:GPIOPinWrite)
                  0005599c    00000006                   : uart.obj (.text:UARTClockSourceSet)
                  000559a2    00000004     rtsv7M4_T_le_v4SPD16_eabi.lib : pre_init.c.obj (.text:_system_pre_init)
                  000559a6    00000004                                   : exit.c.obj (.text:abort:abort)

.const     0    000559ac    00004f2c     
                  000559ac    00002280     lv_font_montserrat_14.obj (.const:.string:glyph_bitmap)
                  00057c2c    00000bad     lv_font_montserrat_14.obj (.const:.string:kern_class_values)
                  000587d9    00000001     --HOLE-- [fill = 0]
                  000587da    00000002     lv_draw_sw_transform.obj (.const:$P$T0$1)
                  000587dc    000004f0     lv_font_montserrat_14.obj (.const:glyph_dsc)
                  00058ccc    0000028c     lv_calendar_header_dropdown.obj (.const:.string)
                  00058f58    000001b0     driverlib.lib : sysctl.obj (.const:g_pppui32XTALtoVCO)
                  00059108    00000198     lv_keyboard.obj (.const:.string)
                  000592a0    0000017c     cli_commands.obj (.const:.string)
                  0005941c    00000101     rtsv7M4_T_le_v4SPD16_eabi.lib : ctype.c.obj (.const:.string:_ctypes_)
                  0005951d    00000100     lv_draw_sw_letter.obj (.const:.string:_lv_bpp8_opa_table)
                  0005961d    00000001     --HOLE-- [fill = 0]
                  0005961e    000000be     lv_color.obj (.const:colors$2)
                  000596dc    000000b6     lv_math.obj (.const:sin0_90_table)
                  00059792    00000002     lv_textarea.obj (.const:.string:$P$T0$1)
                  00059794    000000b0     lv_keyboard.obj (.const:default_kb_map_lc)
                  00059844    000000b0     lv_keyboard.obj (.const:default_kb_map_spec)
                  000598f4    000000b0     lv_keyboard.obj (.const:default_kb_map_uc)
                  000599a4    0000009e     lv_font_montserrat_14.obj (.const:.string:kern_left_class_mapping)
                  00059a42    0000009e     lv_font_montserrat_14.obj (.const:.string:kern_right_class_mapping)
                  00059ae0    0000009c     driverlib.lib : interrupt.obj (.const:g_pui32Regs)
                  00059b7c    00000098     lv_color.obj (.const:colors$3)
                  00059c14    00000090     driverlib.lib : gpio.obj (.const:g_pui32GPIOBaseAddrs)
                  00059ca4    0000007c     lv_font_montserrat_14.obj (.const:unicode_list_1)
                  00059d20    00000070     lv_style.obj (.const:.string:_lv_style_builtin_prop_flag_lookup_table)
                  00059d90    0000006c     driverlib.lib : sysctl.obj (.const:g_pui32Xtals)
                  00059dfc    0000006a     lv_calendar_header_arrow.obj (.const:.string)
                  00059e66    00000002     lv_img_decoder.obj (.const:.string:$P$T1$1)
                  00059e68    00000054     lv_keyboard.obj (.const:default_kb_map_num)
                  00059ebc    00000050     lv_keyboard.obj (.const:default_kb_ctrl_lc_map)
                  00059f0c    00000050     lv_keyboard.obj (.const:default_kb_ctrl_spec_map)
                  00059f5c    00000050     lv_keyboard.obj (.const:default_kb_ctrl_uc_map)
                  00059fac    0000003b     ST7735.obj (.const:.string:init_cmds1)
                  00059fe7    00000001     --HOLE-- [fill = 0]
                  00059fe8    00000038     FreeRTOS_CLI.obj (.const:.string)
                  0005a020    00000030     driverlib.lib : sysctl.obj (.const:g_sXTALtoMEMTIM)
                  0005a050    0000002e     lv_btnmatrix.obj (.const:.string)
                  0005a07e    0000002b     ST7735.obj (.const:.string:init_cmds3)
                  0005a0a9    00000002     lv_draw_sw_letter.obj (.const:.string:_lv_bpp1_opa_table)
                  0005a0ab    00000001     --HOLE-- [fill = 0]
                  0005a0ac    00000028     lv_font_montserrat_14.obj (.const:cmaps)
                  0005a0d4    00000026     FreeRTOS_ARP.obj (.const:.string:xDefaultPartARPPacketHeader$4)
                  0005a0fa    00000026     lv_color.obj (.const:colors$1)
                  0005a120    00000022     lv_keyboard.obj (.const:default_kb_ctrl_num_map)
                  0005a142    00000021     lv_draw_sw_line.obj (.const:.string:wcorr$1)
                  0005a163    00000020     FreeRTOS_Sockets.obj (.const:xPercTable$3)
                  0005a183    00000001     --HOLE-- [fill = 0]
                  0005a184    0000001c     lv_draw_sw_rect.obj (.const:$P$T0$1)
                  0005a1a0    0000001c     lv_calendar.obj (.const:.string)
                  0005a1bc    0000001c     lv_arc.obj (.const:lv_arc_class)
                  0005a1d8    0000001c     lv_bar.obj (.const:lv_bar_class)
                  0005a1f4    0000001c     lv_btn.obj (.const:lv_btn_class)
                  0005a210    0000001c     lv_btnmatrix.obj (.const:lv_btnmatrix_class)
                  0005a22c    0000001c     lv_calendar.obj (.const:lv_calendar_class)
                  0005a248    0000001c     lv_calendar_header_arrow.obj (.const:lv_calendar_header_arrow_class)
                  0005a264    0000001c     lv_calendar_header_dropdown.obj (.const:lv_calendar_header_dropdown_class)
                  0005a280    0000001c     lv_chart.obj (.const:lv_chart_class)
                  0005a29c    0000001c     lv_checkbox.obj (.const:lv_checkbox_class)
                  0005a2b8    0000001c     lv_colorwheel.obj (.const:lv_colorwheel_class)
                  0005a2d4    0000001c     lv_dropdown.obj (.const:lv_dropdown_class)
                  0005a2f0    0000001c     lv_dropdown.obj (.const:lv_dropdownlist_class)
                  0005a30c    0000001c     lv_font_montserrat_14.obj (.const:lv_font_montserrat_14)
                  0005a328    0000001c     lv_img.obj (.const:lv_img_class)
                  0005a344    0000001c     lv_keyboard.obj (.const:lv_keyboard_class)
                  0005a360    0000001c     lv_label.obj (.const:lv_label_class)
                  0005a37c    0000001c     lv_led.obj (.const:lv_led_class)
                  0005a398    0000001c     lv_line.obj (.const:lv_line_class)
                  0005a3b4    0000001c     lv_list.obj (.const:lv_list_btn_class)
                  0005a3d0    0000001c     lv_list.obj (.const:lv_list_class)
                  0005a3ec    0000001c     lv_list.obj (.const:lv_list_text_class)
                  0005a408    0000001c     lv_menu.obj (.const:lv_menu_class)
                  0005a424    0000001c     lv_menu.obj (.const:lv_menu_cont_class)
                  0005a440    0000001c     lv_menu.obj (.const:lv_menu_main_cont_class)
                  0005a45c    0000001c     lv_menu.obj (.const:lv_menu_main_header_cont_class)
                  0005a478    0000001c     lv_menu.obj (.const:lv_menu_page_class)
                  0005a494    0000001c     lv_menu.obj (.const:lv_menu_section_class)
                  0005a4b0    0000001c     lv_menu.obj (.const:lv_menu_separator_class)
                  0005a4cc    0000001c     lv_menu.obj (.const:lv_menu_sidebar_cont_class)
                  0005a4e8    0000001c     lv_menu.obj (.const:lv_menu_sidebar_header_cont_class)
                  0005a504    0000001c     lv_meter.obj (.const:lv_meter_class)
                  0005a520    0000001c     lv_msgbox.obj (.const:lv_msgbox_backdrop_class)
                  0005a53c    0000001c     lv_msgbox.obj (.const:lv_msgbox_class)
                  0005a558    0000001c     lv_obj.obj (.const:lv_obj_class)
                  0005a574    0000001c     lv_roller.obj (.const:lv_roller_class)
                  0005a590    0000001c     lv_roller.obj (.const:lv_roller_label_class)
                  0005a5ac    0000001c     lv_slider.obj (.const:lv_slider_class)
                  0005a5c8    0000001c     lv_spinbox.obj (.const:lv_spinbox_class)
                  0005a5e4    0000001c     lv_spinner.obj (.const:lv_spinner_class)
                  0005a600    0000001c     lv_switch.obj (.const:lv_switch_class)
                  0005a61c    0000001c     lv_table.obj (.const:lv_table_class)
                  0005a638    0000001c     lv_tabview.obj (.const:lv_tabview_class)
                  0005a654    0000001c     lv_textarea.obj (.const:lv_textarea_class)
                  0005a670    0000001c     lv_tileview.obj (.const:lv_tileview_class)
                  0005a68c    0000001c     lv_tileview.obj (.const:lv_tileview_tile_class)
                  0005a6a8    0000001c     lv_win.obj (.const:lv_win_class)
                  0005a6c4    00000019     FreeRTOS_DHCP.obj (.const:.string:ucDHCPRequestOptions$1)
                  0005a6dd    00000018     FreeRTOS_DHCP.obj (.const:.string:ucDHCPDiscoverOptions$2)
                  0005a6f5    00000003     --HOLE-- [fill = 0]
                  0005a6f8    00000018     lv_font_montserrat_14.obj (.const:font_dsc)
                  0005a710    00000018     driverlib.lib : emac.obj (.const:g_pi16MIIClockDiv)
                  0005a728    00000016     lv_theme_default.obj (.const:trans_props$1)
                  0005a73e    00000002     --HOLE-- [fill = 0]
                  0005a740    00000014     driverlib.lib : interrupt.obj (.const:g_pui32EnRegs)
                  0005a754    00000012     uartstdio.obj (.const:.string)
                  0005a766    00000010     lv_img_buf.obj (.const:$P$T3$3)
                  0005a776    00000010     lv_img_buf.obj (.const:.string:$P$T2$2)
                  0005a786    00000010     lv_img_decoder.obj (.const:.string:$P$T3$3)
                  0005a796    00000010     lv_draw_sw_letter.obj (.const:.string:_lv_bpp4_opa_table)
                  0005a7a6    00000002     --HOLE-- [fill = 0]
                  0005a7a8    00000010     lv_font_montserrat_14.obj (.const:kern_classes)
                  0005a7b8    00000010     cli_commands.obj (.const:xEightCommand)
                  0005a7c8    00000010     cli_commands.obj (.const:xFiveCommand)
                  0005a7d8    00000010     cli_commands.obj (.const:xFourCommand)
                  0005a7e8    00000010     FreeRTOS_CLI.obj (.const:xHelpCommand)
                  0005a7f8    00000010     cli_commands.obj (.const:xLedOffCommand)
                  0005a808    00000010     cli_commands.obj (.const:xLedOnCommand)
                  0005a818    00000010     cli_commands.obj (.const:xSevenCommand)
                  0005a828    00000010     cli_commands.obj (.const:xSixCommand)
                  0005a838    00000010     cli_commands.obj (.const:xThreeCommand)
                  0005a848    0000000f     ST7735.obj (.const:.string:init_cmds2)
                  0005a857    00000001     --HOLE-- [fill = 0]
                  0005a858    0000000c     uartstdio.obj (.const:g_ui32UARTBase)
                  0005a864    0000000c     uartstdio.obj (.const:g_ui32UARTPeriph)
                  0005a870    00000008     lv_draw_sw_polygon.obj (.const:$P$T0$1)
                  0005a878    00000008     lv_tlsf.obj (.const:$P$T0$1)
                  0005a880    00000008     driverlib.lib : sysctl.obj (.const:g_pui32VCOFrequencies)
                  0005a888    00000006     FreeRTOS_IP.obj (.const:xBroadcastMACAddress)
                  0005a88e    00000005     FreeRTOS_Sockets.obj (.const:$P$T0$1)
                  0005a893    00000005     FreeRTOS_IP.obj (.const:xNetworkDownEvent$1)
                  0005a898    00000005     FreeRTOS_IP.obj (.const:xNetworkDownEvent$2)
                  0005a89d    00000001     --HOLE-- [fill = 0]
                  0005a89e    00000004     lv_obj_scroll.obj (.const:$P$T0$1)
                  0005a8a2    00000002     --HOLE-- [fill = 0]
                  0005a8a4    00000004     lv_obj_style.obj (.const:$P$T0$1)
                  0005a8a8    00000004     lv_obj_pos.obj (.const:$P$T0$2)
                  0005a8ac    00000004     lv_obj_scroll.obj (.const:$P$T1$2)
                  0005a8b0    00000004     lv_obj_pos.obj (.const:$P$T1$3)
                  0005a8b4    00000004     lv_img_buf.obj (.const:.string:$P$T1$1)
                  0005a8b8    00000004     lv_img_decoder.obj (.const:.string:$P$T2$2)
                  0005a8bc    00000004     lv_draw_sw_letter.obj (.const:.string:_lv_bpp2_opa_table)
                  0005a8c0    00000004     BufferAllocation_1.obj (.const)
                  0005a8c4    00000004     lv_style.obj (.const:null_style_value)
                  0005a8c8    00000004     port.obj (.const)
                  0005a8cc    00000004     tasks.obj (.const)
                  0005a8d0    00000004     uartstdio.obj (.const)
                  0005a8d4    00000004     NetworkInterface.obj (.const:xPHYProperties)

.cinit     0    0005a8d8    00000138     
                  0005a8d8    00000112     (.cinit..data.load) [load image, compression = lzss]
                  0005a9ea    00000002     --HOLE-- [fill = 0]
                  0005a9ec    0000000c     (__TI_handler_table)
                  0005a9f8    00000008     (.cinit..bss.load) [load image, compression = zero_init]
                  0005aa00    00000010     (__TI_cinit_table)

.init_array 
*          0    00000000    00000000     UNINITIALIZED

.bss       0    20000000    00026d4c     UNINITIALIZED
                  20000000    00020000     lv_malloc_builtin.obj (.bss:work_mem_int$1)
                  20020000    00004f10     heap_4.obj (.bss:ucHeap)
                  20024f10    000009c0     NetworkInterface.obj (.bss:_network_buffers)
                  200258d0    00000640     thread_display.obj (.bss:buf_1)
                  20025f10    00000400     thread_cli.obj (.bss:cOutputString$2)
                  20026310    00000140     tasks.obj (.bss:pxReadyTasksLists)
                  20026450    00000100     NetworkInterface.obj (.bss:_rx_descriptors)
                  20026550    00000100     NetworkInterface.obj (.bss:_tx_descriptors)
                  20026650    00000100     lv_draw_sw_letter.obj (.bss:opa_table$1)
                  20026750    00000090     BufferAllocation_1.obj (.bss:xNetworkBuffers)
                  200267e0    00000080     (.common:_lv_draw_mask_list)
                  20026860    00000078     FreeRTOS_ARP.obj (.bss:xARPCache)
                  200268d8    00000070     (.common:_lv_circle_cache)
                  20026948    00000050     (.common:xQueueRegistry)
                  20026998    0000004c     thread_display.obj (.bss:disp_drv)
                  200269e4    00000040     NetworkInterface.obj (.bss:xPhyObject)
                  20026a24    0000003c     thread_cli.obj (.bss:cInputString$1)
                  20026a60    0000002c     (.common:_lv_img_cache_single)
                  20026a8c    00000024     lv_theme_default.obj (.bss:theme)
                  20026ab0    00000021     FreeRTOS_DHCP.obj (.bss:xDHCPData)
                  20026ad1    00000001     lv_colorwheel.obj (.bss)
                  20026ad2    00000002     lv_theme_default.obj (.bss:color_card)
                  20026ad4    0000001c     thread_display.obj (.bss:disp_buf)
                  20026af0    00000014     lv_theme_default.obj (.bss:trans_delayed$2)
                  20026b04    00000014     lv_theme_default.obj (.bss:trans_normal$3)
                  20026b18    00000014     tasks.obj (.bss:xDelayedTaskList1)
                  20026b2c    00000014     tasks.obj (.bss:xDelayedTaskList2)
                  20026b40    00000014     BufferAllocation_1.obj (.bss:xFreeBuffersList)
                  20026b54    00000014     tasks.obj (.bss:xPendingReadyList)
                  20026b68    00000014     tasks.obj (.bss:xSuspendedTaskList)
                  20026b7c    00000014     tasks.obj (.bss:xTasksWaitingTermination)
                  20026b90    00000014     (.common:xBoundTCPSocketsList)
                  20026ba4    00000014     (.common:xBoundUDPSocketsList)
                  20026bb8    00000011     FreeRTOS_IP_Timers.obj (.bss:xARPResolutionTimer)
                  20026bc9    00000011     FreeRTOS_IP_Timers.obj (.bss:xARPTimer)
                  20026bda    00000011     FreeRTOS_IP_Timers.obj (.bss:xDHCPTimer)
                  20026beb    00000011     FreeRTOS_IP_Timers.obj (.bss:xTCPTimer)
                  20026bfc    0000000c     lv_malloc_builtin.obj (.bss)
                  20026c08    0000000c     lv_tileview.obj (.bss)
                  20026c14    0000000c     (.common:_lv_anim_ll)
                  20026c20    0000000c     (.common:_lv_disp_ll)
                  20026c2c    0000000c     (.common:_lv_fsdrv_ll)
                  20026c38    0000000c     (.common:_lv_group_ll)
                  20026c44    0000000c     (.common:_lv_img_decoder_ll)
                  20026c50    0000000c     (.common:_lv_indev_ll)
                  20026c5c    0000000c     (.common:_lv_obj_style_trans_ll)
                  20026c68    0000000c     (.common:_lv_timer_ll)
                  20026c74    0000000c     (.common:_subs_ll)
                  20026c80    00000008     lv_font_montserrat_14.obj (.bss:cache)
                  20026c88    00000008     lv_theme_default.obj (.bss:dark_filter$4)
                  20026c90    00000008     lv_theme_default.obj (.bss:grey_filter$5)
                  20026c98    00000008     lv_anim.obj (.bss)
                  20026ca0    00000008     lv_area.obj (.bss)
                  20026ca8    00000008     lv_refr.obj (.bss)
                  20026cb0    00000008     lv_spinner.obj (.bss)
                  20026cb8    00000008     tasks.obj (.bss)
                  20026cc0    00000008     FreeRTOS_ARP.obj (.bss:xARPClashTimeOut$3)
                  20026cc8    00000008     heap_4.obj (.bss:xStart)
                  20026cd0    00000005     lv_theme_default.obj (.bss)
                  20026cd5    00000001     lv_hal_tick.obj (.bss)
                  20026cd6    00000002     lv_theme_default.obj (.bss:color_grey)
                  20026cd8    00000004     FreeRTOS_DHCP.obj (.bss)
                  20026cdc    00000004     FreeRTOS_CLI.obj (.bss:cOutputBuffer)
                  20026ce0    00000004     lv_event.obj (.bss)
                  20026ce4    00000004     lv_group.obj (.bss)
                  20026ce8    00000004     lv_hal_disp.obj (.bss)
                  20026cec    00000004     lv_indev.obj (.bss)
                  20026cf0    00000004     lv_obj_pos.obj (.bss)
                  20026cf4    00000004     lv_tabview.obj (.bss)
                  20026cf8    00000004     lv_textarea.obj (.bss)
                  20026cfc    00000004     (.common:_lv_grad_cache_mem)
                  20026d00    00000004     (.common:_lv_layout_list)
                  20026d04    00000004     (.common:_lv_style_custom_prop_flag_lookup_table)
                  20026d08    00000004     (.common:_lv_theme_basic_styles)
                  20026d0c    00000004     (.common:_lv_theme_default_styles)
                  20026d10    00000004     (.common:_lv_timer_act)
                  20026d14    00000004     (.common:g_ui32SysClock)
                  20026d18    00000004     (.common:xProcessedTCPMessage)
                  20026d1c    00000002     lv_theme_default.obj (.bss:color_scr)
                  20026d1e    00000002     lv_theme_default.obj (.bss:color_text)
                  20026d20    00000002     lv_draw_sw_blend.obj (.bss:last_dest_color$7)
                  20026d22    00000002     lv_draw_sw_blend.obj (.bss:last_res_color$9)
                  20026d24    00000002     lv_draw_sw_blend.obj (.bss:last_src_color$8)
                  20026d26    00000002     lv_timer.obj (.bss)
                  20026d28    00000002     lv_win.obj (.bss)
                  20026d2a    00000002     (.common:LV_LAYOUT_FLEX)
                  20026d2c    00000002     (.common:LV_LAYOUT_GRID)
                  20026d2e    00000002     (.common:LV_STYLE_FLEX_CROSS_PLACE)
                  20026d30    00000002     (.common:LV_STYLE_FLEX_FLOW)
                  20026d32    00000002     (.common:LV_STYLE_FLEX_GROW)
                  20026d34    00000002     (.common:LV_STYLE_FLEX_MAIN_PLACE)
                  20026d36    00000002     (.common:LV_STYLE_FLEX_TRACK_PLACE)
                  20026d38    00000002     (.common:LV_STYLE_GRID_CELL_COLUMN_POS)
                  20026d3a    00000002     (.common:LV_STYLE_GRID_CELL_COLUMN_SPAN)
                  20026d3c    00000002     (.common:LV_STYLE_GRID_CELL_ROW_POS)
                  20026d3e    00000002     (.common:LV_STYLE_GRID_CELL_ROW_SPAN)
                  20026d40    00000002     (.common:LV_STYLE_GRID_CELL_X_ALIGN)
                  20026d42    00000002     (.common:LV_STYLE_GRID_CELL_Y_ALIGN)
                  20026d44    00000002     (.common:LV_STYLE_GRID_COLUMN_ALIGN)
                  20026d46    00000002     (.common:LV_STYLE_GRID_COLUMN_DSC_ARRAY)
                  20026d48    00000002     (.common:LV_STYLE_GRID_ROW_ALIGN)
                  20026d4a    00000002     (.common:LV_STYLE_GRID_ROW_DSC_ARRAY)

.data      0    20026d4c    0000025a     UNINITIALIZED
                  20026d4c    00000034     tasks.obj (.data)
                  20026d80    00000030     lv_calendar_header_arrow.obj (.data:month_names_def)
                  20026db0    00000024     lv_keyboard.obj (.data:kb_ctrl)
                  20026dd4    00000024     lv_keyboard.obj (.data:kb_map)
                  20026df8    00000020     lv_txt.obj (.data)
                  20026e18    0000001c     FreeRTOS_IP.obj (.data)
                  20026e34    0000001c     lv_calendar.obj (.data:day_names_def)
                  20026e50    0000001c     lv_btnmatrix.obj (.data:lv_btnmatrix_def_map)
                  20026e6c    00000018     heap_4.obj (.data)
                  20026e84    00000018     FreeRTOS_UDP_IP.obj (.data:xDefaultPartUDPPacketHeader)
                  20026e9c    00000014     FreeRTOS_IP.obj (.data:xDefaultAddressing)
                  20026eb0    00000014     FreeRTOS_IP.obj (.data:xNetworkAddressing)
                  20026ec4    00000010     lv_timer.obj (.data)
                  20026ed4    0000000c     FreeRTOS_ARP.obj (.data)
                  20026ee0    0000000c     FreeRTOS_CLI.obj (.data)
                  20026eec    0000000c     NetworkInterface.obj (.data:_rx_descriptor_list)
                  20026ef8    0000000c     NetworkInterface.obj (.data:_tx_descriptor_list)
                  20026f04    00000009     lv_draw_sw_gradient.obj (.data)
                  20026f0d    00000003     rtos_hw_drivers.obj (.data)
                  20026f10    00000008     rtsv7M4_T_le_v4SPD16_eabi.lib : _lock.c.obj (.data:$O1$$)
                  20026f18    00000008     BufferAllocation_1.obj (.data)
                  20026f20    00000008     NetworkInterface.obj (.data)
                  20026f28    00000008     lv_calendar_header_dropdown.obj (.data)
                  20026f30    00000008     lv_colorwheel.obj (.data)
                  20026f38    00000008     lv_draw_sw_blend.obj (.data)
                  20026f40    00000008     lv_draw_sw_letter.obj (.data)
                  20026f48    00000008     lv_obj.obj (.data)
                  20026f50    00000008     FreeRTOS_CLI.obj (.data:xRegisteredCommands)
                  20026f58    00000006     lv_style.obj (.data)
                  20026f5e    00000002     lv_draw_sw_blend.obj (.data:bg_color_save$4)
                  20026f60    00000005     lv_indev.obj (.data)
                  20026f65    00000001     lv_obj_pos.obj (.data)
                  20026f66    00000002     lv_draw_sw_blend.obj (.data:fg_color_save$3)
                  20026f68    00000005     uartstdio.obj (.data)
                  20026f6d    00000001     lv_obj_style.obj (.data)
                  20026f6e    00000002     lv_draw_sw_blend.obj (.data:res_color_saved$5)
                  20026f70    00000004     FreeRTOS_IP_Utils.obj (.data)
                  20026f74    00000004     FreeRTOS_Sockets.obj (.data)
                  20026f78    00000004     FreeRTOS_TCP_IP.obj (.data)
                  20026f7c    00000004     FreeRTOS_Tiny_TCP.obj (.data)
                  20026f80    00000004     lv_area.obj (.data)
                  20026f84    00000004     lv_event.obj (.data)
                  20026f88    00000004     lv_hal_tick.obj (.data)
                  20026f8c    00000004     lv_math.obj (.data)
                  20026f90    00000004     lv_mem.obj (.data)
                  20026f94    00000004     main.obj (.data)
                  20026f98    00000004     port.obj (.data)
                  20026f9c    00000004     rtsv7M4_T_le_v4SPD16_eabi.lib : errno.c.obj (.data)
                  20026fa0    00000004                                   : rand.c.obj (.data)
                  20026fa4    00000001     lv_theme_default.obj (.data)
                  20026fa5    00000001     thread_display.obj (.data)

.stack     0    20026fa8    00000200     UNINITIALIZED
                  20026fa8    00000004     rtsv7M4_T_le_v4SPD16_eabi.lib : boot_cortex_m.c.obj (.stack)
                  20026fac    000001fc     --HOLE--

.sysmem    0    200271a8    00000010     UNINITIALIZED
                  200271a8    00000010     rtsv7M4_T_le_v4SPD16_eabi.lib : memory.c.obj (.sysmem)

__llvm_prf_cnts 
*          0    20000000    00000000     UNINITIALIZED

MODULE SUMMARY

       Module                            code     ro data   rw data
       ------                            ----     -------   -------
    .\
       main.obj                          712      0         8      
       tm4c1294ncpdt_startup_ccs.obj     12       520       0      
    +--+---------------------------------+--------+---------+---------+
       Total:                            724      520       8      
                                                                   
    .\drivers\
       rtos_hw_drivers.obj               872      0         3      
    +--+---------------------------------+--------+---------+---------+
       Total:                            872      0         3      
                                                                   
    .\drivers\display\
       ST7735.obj                        1176     117       0      
    +--+---------------------------------+--------+---------+---------+
       Total:                            1176     117       0      
                                                                   
    .\middlewares\FreeRTOS-Plus-CLI\
       FreeRTOS_CLI.obj                  804      72        24     
    +--+---------------------------------+--------+---------+---------+
       Total:                            804      72        24     
                                                                   
    .\middlewares\FreeRTOS-Plus-TCP\source\
       FreeRTOS_Sockets.obj              7764     37        44     
       FreeRTOS_IP.obj                   2852     16        72     
       FreeRTOS_TCP_Transmission.obj     2704     0         0      
       FreeRTOS_TCP_State_Handling.obj   2576     0         0      
       FreeRTOS_ARP.obj                  2216     38        140    
       FreeRTOS_IP_Utils.obj             2268     0         4      
       FreeRTOS_DHCP.obj                 2184     49        37     
       FreeRTOS_TCP_IP.obj               1464     0         4      
       FreeRTOS_TCP_Reception.obj        910      0         0      
       FreeRTOS_Stream_Buffer.obj        874      0         0      
       FreeRTOS_Tiny_TCP.obj             760      0         4      
       FreeRTOS_IP_Timers.obj            648      0         68     
       FreeRTOS_UDP_IP.obj               484      0         24     
       FreeRTOS_TCP_WIN.obj              300      0         0      
       FreeRTOS_ICMP.obj                 180      0         0      
       FreeRTOS_TCP_Utils.obj            96       0         0      
    +--+---------------------------------+--------+---------+---------+
       Total:                            28280    140       397    
                                                                   
    .\middlewares\FreeRTOS-Plus-TCP\source\portable\BufferManagement\
       BufferAllocation_1.obj            568      4         172    
    +--+---------------------------------+--------+---------+---------+
       Total:                            568      4         172    
                                                                   
    .\middlewares\FreeRTOS-Plus-TCP\source\portable\NetworkInterface\Common\
       phyHandling.obj                   2216     0         0      
    +--+---------------------------------+--------+---------+---------+
       Total:                            2216     0         0      
                                                                   
    .\middlewares\FreeRTOS-Plus-TCP\source\portable\NetworkInterface\TM4C\
       NetworkInterface.obj              1868     4         3104   
    +--+---------------------------------+--------+---------+---------+
       Total:                            1868     4         3104   
                                                                   
    .\middlewares\FreeRTOS\Source\
       tasks.obj                         8484     4         480    
       queue.obj                         3416     0         80     
       event_groups.obj                  968      0         0      
       list.obj                          298      0         0      
    +--+---------------------------------+--------+---------+---------+
       Total:                            13166    4         560    
                                                                   
    .\middlewares\FreeRTOS\Source\portable\CCS\ARM_CM4F\
       port.obj                          316      4         4      
       portasm.obj                       218      0         0      
    +--+---------------------------------+--------+---------+---------+
       Total:                            534      4         4      
                                                                   
    .\middlewares\FreeRTOS\Source\portable\MemMang\
       heap_4.obj                        928      0         20272  
    +--+---------------------------------+--------+---------+---------+
       Total:                            928      0         20272  
                                                                   
    .\middlewares\lvgl\src\core\
       lv_obj_pos.obj                    9720     8         5      
       lv_obj_scroll.obj                 7360     8         0      
       lv_obj_style.obj                  6632     4         1      
       lv_refr.obj                       6608     0         8      
       lv_indev.obj                      6212     0         9      
       lv_obj.obj                        5746     28        8      
       lv_indev_scroll.obj               4722     0         0      
       lv_obj_draw.obj                   3698     0         0      
       lv_obj_style_gen.obj              3008     0         0      
       lv_event.obj                      2558     0         8      
       lv_disp.obj                       2334     0         0      
       lv_group.obj                      2326     0         4      
       lv_obj_tree.obj                   2094     0         0      
       lv_obj_class.obj                  762      0         0      
       lv_theme.obj                      320      0         0      
    +--+---------------------------------+--------+---------+---------+
       Total:                            64100    48        43     
                                                                   
    .\middlewares\lvgl\src\draw\
       lv_draw_mask.obj                  11510    0         0      
       lv_img_buf.obj                    3704     36        0      
       lv_img_decoder.obj                3656     22        0      
       lv_draw_label.obj                 2234     0         0      
       lv_draw_arc.obj                   1932     0         0      
       lv_draw_img.obj                   1588     0         0      
       lv_draw_rect.obj                  360      0         0      
       lv_draw_layer.obj                 292      0         0      
       lv_draw_line.obj                  190      0         0      
       lv_img_cache.obj                  156      0         0      
       lv_draw_transform.obj             80       0         0      
       lv_draw.obj                       24       0         0      
    +--+---------------------------------+--------+---------+---------+
       Total:                            25726    58        0      
                                                                   
    .\middlewares\lvgl\src\draw\sw\
       lv_draw_sw_rect.obj               10500    28        0      
       lv_draw_sw_blend.obj              7156     0         20     
       lv_draw_sw_arc.obj                4672     0         0      
       lv_draw_sw_transform.obj          3654     2         0      
       lv_draw_sw_line.obj               3098     33        0      
       lv_draw_sw_img.obj                2106     0         0      
       lv_draw_sw_letter.obj             1554     278       264    
       lv_draw_sw_gradient.obj           1752     0         9      
       lv_draw_sw_polygon.obj            1336     8         0      
       lv_draw_sw.obj                    1078     0         0      
       lv_draw_sw_layer.obj              654      0         0      
    +--+---------------------------------+--------+---------+---------+
       Total:                            37560    349       293    
                                                                   
    .\middlewares\lvgl\src\font\
       lv_font_montserrat_14.obj         0        13633     8      
       lv_font_fmt_txt.obj               1388     0         0      
       lv_font.obj                       328      0         0      
    +--+---------------------------------+--------+---------+---------+
       Total:                            1716     13633     8      
                                                                   
    .\middlewares\lvgl\src\hal\
       lv_hal_disp.obj                   2124     0         4      
       lv_hal_indev.obj                  476      0         0      
       lv_hal_tick.obj                   116      0         5      
    +--+---------------------------------+--------+---------+---------+
       Total:                            2716     0         9      
                                                                   
    .\middlewares\lvgl\src\layouts\flex\
       lv_flex.obj                       4926     0         12     
    +--+---------------------------------+--------+---------+---------+
       Total:                            4926     0         12     
                                                                   
    .\middlewares\lvgl\src\layouts\grid\
       lv_grid.obj                       5342     0         22     
    +--+---------------------------------+--------+---------+---------+
       Total:                            5342     0         22     
                                                                   
    .\middlewares\lvgl\src\misc\
       lv_malloc_builtin.obj             396      0         131084 
       lv_tlsf.obj                       5406     8         0      
       lv_area.obj                       3612     0         12     
       lv_txt.obj                        3124     0         32     
       lv_printf.obj                     3120     0         0      
       lv_fs.obj                         2416     0         0      
       lv_style.obj                      2204     116       6      
       lv_anim.obj                       2272     0         8      
       lv_color.obj                      1788     380       0      
       lv_style_gen.obj                  2168     0         0      
       lv_memcpy_builtin.obj             1446     0         0      
       lv_math.obj                       1104     182       4      
       lv_ll.obj                         1112     0         0      
       lv_timer.obj                      852      0         18     
       lv_gc.obj                         240      0         416    
       lv_mem.obj                        240      0         4      
       lv_async.obj                      220      0         0      
       lv_utils.obj                      116      0         0      
    +--+---------------------------------+--------+---------+---------+
       Total:                            31836    686       131584 
                                                                   
    .\middlewares\lvgl\src\themes\default\
       lv_theme_default.obj              12664    22        106    
    +--+---------------------------------+--------+---------+---------+
       Total:                            12664    22        106    
                                                                   
    .\middlewares\lvgl\src\widgets\arc\
       lv_arc.obj                        6136     28        0      
    +--+---------------------------------+--------+---------+---------+
       Total:                            6136     28        0      
                                                                   
    .\middlewares\lvgl\src\widgets\bar\
       lv_bar.obj                        3832     28        0      
    +--+---------------------------------+--------+---------+---------+
       Total:                            3832     28        0      
                                                                   
    .\middlewares\lvgl\src\widgets\btn\
       lv_btn.obj                        56       28        0      
    +--+---------------------------------+--------+---------+---------+
       Total:                            56       28        0      
                                                                   
    .\middlewares\lvgl\src\widgets\btnmatrix\
       lv_btnmatrix.obj                  7312     74        28     
    +--+---------------------------------+--------+---------+---------+
       Total:                            7312     74        28     
                                                                   
    .\middlewares\lvgl\src\widgets\calendar\
       lv_calendar.obj                   2136     56        28     
       lv_calendar_header_dropdown.obj   432      680       8      
       lv_calendar_header_arrow.obj      588      134       48     
    +--+---------------------------------+--------+---------+---------+
       Total:                            3156     870       84     
                                                                   
    .\middlewares\lvgl\src\widgets\chart\
       lv_chart.obj                      12942    28        0      
    +--+---------------------------------+--------+---------+---------+
       Total:                            12942    28        0      
                                                                   
    .\middlewares\lvgl\src\widgets\checkbox\
       lv_checkbox.obj                   1656     28        0      
    +--+---------------------------------+--------+---------+---------+
       Total:                            1656     28        0      
                                                                   
    .\middlewares\lvgl\src\widgets\colorwheel\
       lv_colorwheel.obj                 4584     28        9      
    +--+---------------------------------+--------+---------+---------+
       Total:                            4584     28        9      
                                                                   
    .\middlewares\lvgl\src\widgets\dropdown\
       lv_dropdown.obj                   6162     56        0      
    +--+---------------------------------+--------+---------+---------+
       Total:                            6162     56        0      
                                                                   
    .\middlewares\lvgl\src\widgets\img\
       lv_img.obj                        4728     28        0      
    +--+---------------------------------+--------+---------+---------+
       Total:                            4728     28        0      
                                                                   
    .\middlewares\lvgl\src\widgets\keyboard\
       lv_keyboard.obj                   1308     1322      72     
    +--+---------------------------------+--------+---------+---------+
       Total:                            1308     1322      72     
                                                                   
    .\middlewares\lvgl\src\widgets\label\
       lv_label.obj                      7296     28        0      
    +--+---------------------------------+--------+---------+---------+
       Total:                            7296     28        0      
                                                                   
    .\middlewares\lvgl\src\widgets\led\
       lv_led.obj                        1152     28        0      
    +--+---------------------------------+--------+---------+---------+
       Total:                            1152     28        0      
                                                                   
    .\middlewares\lvgl\src\widgets\line\
       lv_line.obj                       926      28        0      
    +--+---------------------------------+--------+---------+---------+
       Total:                            926      28        0      
                                                                   
    .\middlewares\lvgl\src\widgets\list\
       lv_list.obj                       0        84        0      
    +--+---------------------------------+--------+---------+---------+
       Total:                            0        84        0      
                                                                   
    .\middlewares\lvgl\src\widgets\menu\
       lv_menu.obj                       3074     252       0      
    +--+---------------------------------+--------+---------+---------+
       Total:                            3074     252       0      
                                                                   
    .\middlewares\lvgl\src\widgets\meter\
       lv_meter.obj                      4878     28        0      
    +--+---------------------------------+--------+---------+---------+
       Total:                            4878     28        0      
                                                                   
    .\middlewares\lvgl\src\widgets\msgbox\
       lv_msgbox.obj                     0        56        0      
    +--+---------------------------------+--------+---------+---------+
       Total:                            0        56        0      
                                                                   
    .\middlewares\lvgl\src\widgets\roller\
       lv_roller.obj                     4592     56        0      
    +--+---------------------------------+--------+---------+---------+
       Total:                            4592     56        0      
                                                                   
    .\middlewares\lvgl\src\widgets\slider\
       lv_slider.obj                     3680     28        0      
    +--+---------------------------------+--------+---------+---------+
       Total:                            3680     28        0      
                                                                   
    .\middlewares\lvgl\src\widgets\spinbox\
       lv_spinbox.obj                    2296     28        0      
    +--+---------------------------------+--------+---------+---------+
       Total:                            2296     28        0      
                                                                   
    .\middlewares\lvgl\src\widgets\spinner\
       lv_spinner.obj                    380      28        8      
    +--+---------------------------------+--------+---------+---------+
       Total:                            380      28        8      
                                                                   
    .\middlewares\lvgl\src\widgets\switch\
       lv_switch.obj                     1552     28        0      
    +--+---------------------------------+--------+---------+---------+
       Total:                            1552     28        0      
                                                                   
    .\middlewares\lvgl\src\widgets\table\
       lv_table.obj                      7112     28        0      
    +--+---------------------------------+--------+---------+---------+
       Total:                            7112     28        0      
                                                                   
    .\middlewares\lvgl\src\widgets\tabview\
       lv_tabview.obj                    1872     28        4      
    +--+---------------------------------+--------+---------+---------+
       Total:                            1872     28        4      
                                                                   
    .\middlewares\lvgl\src\widgets\textarea\
       lv_textarea.obj                   7148     30        4      
    +--+---------------------------------+--------+---------+---------+
       Total:                            7148     30        4      
                                                                   
    .\middlewares\lvgl\src\widgets\tileview\
       lv_tileview.obj                   844      56        12     
    +--+---------------------------------+--------+---------+---------+
       Total:                            844      56        12     
                                                                   
    .\middlewares\lvgl\src\widgets\win\
       lv_win.obj                        332      28        2      
    +--+---------------------------------+--------+---------+---------+
       Total:                            332      28        2      
                                                                   
    .\thread\
       thread_display.obj                332      0         1705   
       thread_cli.obj                    48       0         1084   
       thread_modbus.obj                 14       0         0      
    +--+---------------------------------+--------+---------+---------+
       Total:                            394      0         2789   
                                                                   
    .\utils\
       uartstdio.obj                     1192     46        5      
       cli_commands.obj                  700      508       0      
    +--+---------------------------------+--------+---------+---------+
       Total:                            1892     554       5      
                                                                   
    C:/ti/TivaWare_C_Series-2.2.0.295/driverlib/ccs/Debug/driverlib.lib
       sysctl.obj                        1140     596       0      
       gpio.obj                          632      144       0      
       emac.obj                          594      24        0      
       interrupt.obj                     156      176       0      
       uart.obj                          148      0         0      
       flash.obj                         20       0         0      
       ssi.obj                           18       0         0      
       cpu.obj                           12       0         0      
    +--+---------------------------------+--------+---------+---------+
       Total:                            2720     940       0      
                                                                   
    C:\ti\ccs1200\ccs\tools\compiler\ti-cgt-arm_20.2.7.LTS\lib\rtsv7M4_T_le_v4SPD16_eabi.lib
       _printfi.c.obj                    4851     0         0      
       fd_add_t2.asm.obj                 438      0         0      
       fd_div_t2.asm.obj                 310      0         0      
       s_scalbn.c.obj                    272      0         0      
       fd_cmp_t2.asm.obj                 268      0         0      
       ctype.c.obj                       0        257       0      
       fd_mul_t2.asm.obj                 252      0         0      
       memcpy_t2.asm.obj                 156      0         0      
       ull_div_t2.asm.obj                150      0         0      
       snprintf.c.obj                    148      0         0      
       memset_t2.asm.obj                 122      0         0      
       copy_decompress_lzss.c.obj        104      0         0      
       s_frexp.c.obj                     100      0         0      
       sprintf.c.obj                     98       0         0      
       i_divt2.asm.obj                   94       0         0      
       _ltoa.c.obj                       84       0         0      
       atoi.c.obj                        76       0         0      
       fd_toi_t2.asm.obj                 72       0         0      
       autoinit.c.obj                    68       0         0      
       u_divt2.asm.obj                   64       0         0      
       rand.c.obj                        52       0         4      
       strncpy.c.obj                     54       0         0      
       boot_cortex_m.c.obj               52       0         0      
       i_tofd_t2.asm.obj                 46       0         0      
       strncmp.c.obj                     44       0         0      
       memmov.c.obj                      40       0         0      
       memcmp.c.obj                      36       0         0      
       strcat.c.obj                      30       0         0      
       memccpy.c.obj                     28       0         0      
       s_copysign.c.obj                  26       0         0      
       ll_mul_t2.asm.obj                 24       0         0      
       strcmp.c.obj                      24       0         0      
       strchr.c.obj                      22       0         0      
       strcpy.c.obj                      20       0         0      
       strlen.c.obj                      20       0         0      
       wcslen.c.obj                      18       0         0      
       copy_decompress_none.c.obj        14       0         0      
       copy_zero_init.c.obj              12       0         0      
       errno.c.obj                       8        0         4      
       _lock.c.obj                       2        0         8      
       exit.c.obj                        4        0         0      
       pre_init.c.obj                    4        0         0      
       div0.asm.obj                      2        0         0      
    +--+---------------------------------+--------+---------+---------+
       Total:                            8309     257       16     
                                                                   
       Heap:                             0        0         16     
       Stack:                            0        0         512    
       Linker Generated:                 0        310       0      
    +--+---------------------------------+--------+---------+---------+
       Grand Total:                      350043   21082     160182 


LINKER GENERATED COPY TABLES

__TI_cinit_table @ 0005aa00 records: 2, size/record: 8, table size: 16
	.data: load addr=0005a8d8, load size=00000112 bytes, run addr=20026d4c, run size=0000025a bytes, compression=lzss
	.bss: load addr=0005a9f8, load size=00000008 bytes, run addr=20000000, run size=00026d4c bytes, compression=zero_init


LINKER GENERATED HANDLER TABLE

__TI_handler_table @ 0005a9ec records: 3, size/record: 4, table size: 12
	index: 0, handler: __TI_decompress_lzss
	index: 1, handler: __TI_decompress_none
	index: 2, handler: __TI_zero_init


GLOBAL SYMBOLS: SORTED ALPHABETICALLY BY Name 

address   name                                        
-------   ----                                        
0004fdc9  ButtonsInit                                 
0004fd29  ButtonsPoll                                 
000559a7  C$$EXIT                                     
00055919  CPUcpsid                                    
000554a1  EMACAddrSet                                 
0005539d  EMACConfigGet                               
00055285  EMACConfigSet                               
000558dd  EMACFrameFilterSet                          
00054a2d  EMACInit                                    
000553d1  EMACIntClear                                
0005524b  EMACIntEnable                               
0005555f  EMACIntStatus                               
0005560b  EMACPHYRead                                 
00055631  EMACPHYWrite                                
00055965  EMACPowerManagementStatusGet                
00055985  EMACRxDMADescriptorListSet                  
000557c7  EMACRxEnable                                
0005598b  EMACTxDMADescriptorListSet                  
0005596d  EMACTxDMAPollDemand                         
000557dd  EMACTxEnable                                
00055879  FlashUserGet                                
00050631  FreeRTOS_CLIGetOutputBuffer                 
00050635  FreeRTOS_CLIGetParameter                    
0005054b  FreeRTOS_CLIProcessCommand                  
0005050d  FreeRTOS_CLIRegisterCommand                 
0004328f  FreeRTOS_ClearARP                           
0001108b  FreeRTOS_EUI48_ntop                         
00011161  FreeRTOS_EUI48_pton                         
0003baaf  FreeRTOS_GetAddressConfiguration            
0003c201  FreeRTOS_GetDNSServerAddress                
0003c1fb  FreeRTOS_GetGatewayAddress                  
0003c1e5  FreeRTOS_GetIPAddress                       
0003b8bb  FreeRTOS_GetIPTaskHandle                    
0001135b  FreeRTOS_GetLocalAddress                    
0003c223  FreeRTOS_GetMACAddress                      
0003c207  FreeRTOS_GetNetmask                         
00011f2d  FreeRTOS_GetRemoteAddress                   
0003b937  FreeRTOS_GetUDPPayloadBuffer                
0003b985  FreeRTOS_IPInit                             
0003c24d  FreeRTOS_IsNetworkUp                        
0003b8eb  FreeRTOS_NetworkDown                        
0003b90d  FreeRTOS_NetworkDownFromISR                 
0004312f  FreeRTOS_OutputARPRequest                   
0003bb4d  FreeRTOS_ReleaseTCPPayloadBuffer            
0003bb35  FreeRTOS_ReleaseUDPPayloadBuffer            
0003baef  FreeRTOS_SetAddressConfiguration            
0003c237  FreeRTOS_SetGatewayAddress                  
0003c1eb  FreeRTOS_SetIPAddress                       
0003c227  FreeRTOS_SetNetmask                         
0003c20d  FreeRTOS_UpdateMACAddress                   
00011585  FreeRTOS_accept                             
00010729  FreeRTOS_bind                               
00010869  FreeRTOS_closesocket                        
000114f5  FreeRTOS_connect                            
000120e1  FreeRTOS_connstatus                         
00011d4d  FreeRTOS_get_rx_buf                         
00011931  FreeRTOS_get_tx_head                        
00011341  FreeRTOS_inet_addr                          
00010e73  FreeRTOS_inet_ntoa                          
00010f7b  FreeRTOS_inet_ntop                          
00010fad  FreeRTOS_inet_ntop4                         
00010f4b  FreeRTOS_inet_pton                          
00011219  FreeRTOS_inet_pton4                         
00012075  FreeRTOS_issocketconnected                  
00011aeb  FreeRTOS_listen                             
00041fe9  FreeRTOS_max_int32                          
0004201d  FreeRTOS_max_size_t                         
00042003  FreeRTOS_max_uint32                         
00011f8f  FreeRTOS_maywrite                           
00042037  FreeRTOS_min_int32                          
0004206b  FreeRTOS_min_size_t                         
00042051  FreeRTOS_min_uint32                         
000120b3  FreeRTOS_mss                                
00012163  FreeRTOS_netstat                            
000116db  FreeRTOS_recv                               
000104f1  FreeRTOS_recvfrom                           
000420af  FreeRTOS_round_down                         
00042085  FreeRTOS_round_up                           
0001210b  FreeRTOS_rx_size                            
000119a3  FreeRTOS_send                               
00010637  FreeRTOS_sendto                             
00010a85  FreeRTOS_setsockopt                         
00011bab  FreeRTOS_shutdown                           
000103e1  FreeRTOS_socket                             
00041f05  FreeRTOS_strerror_r                         
0001203d  FreeRTOS_tx_size                            
00011ff7  FreeRTOS_tx_space                           
0005558b  GPIODirModeSet                              
00052db5  GPIOPadConfigSet                            
00054f8d  GPIOPinConfigure                            
00055991  GPIOPinRead                                 
000557f3  GPIOPinTypeEthernetLED                      
00055809  GPIOPinTypeGPIOInput                        
0005571b  GPIOPinTypeGPIOOutput                       
0005581f  GPIOPinTypeUART                             
00055835  GPIOPinTypeUSBAnalog                        
0005584b  GPIOPinTypeUSBDigital                       
00055997  GPIOPinWrite                                
00054bfd  IntEnable                                   
000558ed  IntMasterDisable                            
00055659  IntPrioritySet                              
0004fccd  LEDRead                                     
0004fc3d  LEDWrite                                    
20026d2a  LV_LAYOUT_FLEX                              
20026d2c  LV_LAYOUT_GRID                              
20026d2e  LV_STYLE_FLEX_CROSS_PLACE                   
20026d30  LV_STYLE_FLEX_FLOW                          
20026d32  LV_STYLE_FLEX_GROW                          
20026d34  LV_STYLE_FLEX_MAIN_PLACE                    
20026d36  LV_STYLE_FLEX_TRACK_PLACE                   
20026d38  LV_STYLE_GRID_CELL_COLUMN_POS               
20026d3a  LV_STYLE_GRID_CELL_COLUMN_SPAN              
20026d3c  LV_STYLE_GRID_CELL_ROW_POS                  
20026d3e  LV_STYLE_GRID_CELL_ROW_SPAN                 
20026d40  LV_STYLE_GRID_CELL_X_ALIGN                  
20026d42  LV_STYLE_GRID_CELL_Y_ALIGN                  
20026d44  LV_STYLE_GRID_COLUMN_ALIGN                  
20026d46  LV_STYLE_GRID_COLUMN_DSC_ARRAY              
20026d48  LV_STYLE_GRID_ROW_ALIGN                     
20026d4a  LV_STYLE_GRID_ROW_DSC_ARRAY                 
0004fb05  PinoutSet                                   
00054571  ProcessICMPPacket                           
00055931  ResetISR                                    
00055975  SSIBusy                                     
0005593d  SSIDataPut                                  
0004d6c9  ST7735_DrawPixel                            
0004d5b1  ST7735_FillRectangle                        
0004d72d  ST7735_SetAddressWindow                     
0004d4c3  ST7735_flush                                
0004d4a1  ST7735_init                                 
00051fb5  SysCtlClockFreqSet                          
00053df9  SysCtlClockGet                              
00055405  SysCtlPeripheralEnable                      
000552bd  SysCtlPeripheralPresent                     
000552f5  SysCtlPeripheralReady                       
00054eed  SysCtlPeripheralReset                       
00055947  UARTCharGet                                 
00055951  UARTCharPut                                 
0005599d  UARTClockSourceSet                          
00055101  UARTConfigSetExpClk                         
000556a1  UARTDisable                                 
0005588d  UARTEnable                                  
0004ce65  UARTStdioConfig                             
0004cfb5  UARTgetc                                    
0004cefb  UARTgets                                    
0004d2d7  UARTprintf                                  
0004cfdd  UARTvprintf                                 
0004ceab  UARTwrite                                   
200271a8  __STACK_END                                 
00000200  __STACK_SIZE                                
20027fa8  __STACK_TOP                                 
00000010  __SYSMEM_SIZE                               
0005aa00  __TI_CINIT_Base                             
0005aa10  __TI_CINIT_Limit                            
0005a9ec  __TI_Handler_Table_Base                     
0005a9f8  __TI_Handler_Table_Limit                    
00055149  __TI_auto_init_nobinit_nopinit              
00054c65  __TI_decompress_lzss                        
000558fd  __TI_decompress_none                        
00054e45  __TI_ltoa                                   
ffffffff  __TI_pprof_out_hndl                         
0003cd05  __TI_printfi                                
ffffffff  __TI_prof_data_size                         
ffffffff  __TI_prof_data_start                        
00000000  __TI_static_base__                          
00055925  __TI_zero_init                              
000548a7  __aeabi_cdcmpeq                             
000548a7  __aeabi_cdcmple                             
0005492d  __aeabi_cdrcmple                            
000550b9  __aeabi_d2iz                                
0005274f  __aeabi_dadd                                
00053821  __aeabi_ddiv                                
00054021  __aeabi_dmul                                
00052745  __aeabi_dsub                                
0005597d  __aeabi_errno_addr                          
00055531  __aeabi_i2d                                 
00054d91  __aeabi_idiv                                
00009307  __aeabi_idiv0                               
00054d91  __aeabi_idivmod                             
00009307  __aeabi_ldiv0                               
00055797  __aeabi_lmul                                
000549b3  __aeabi_memclr                              
000549b3  __aeabi_memclr4                             
000549b3  __aeabi_memclr8                             
00054775  __aeabi_memcpy                              
00054775  __aeabi_memcpy4                             
00054775  __aeabi_memcpy8                             
000549b5  __aeabi_memset                              
000549b5  __aeabi_memset4                             
000549b5  __aeabi_memset8                             
0005518d  __aeabi_uidiv                               
0005518d  __aeabi_uidivmod                            
00054811  __aeabi_uldivmod                            
ffffffff  __binit__                                   
ffffffff  __c_args__                                  
UNDEFED   __mpu_init                                  
20026fa8  __stack                                     
20000000  __start___llvm_prf_cnts                     
20000000  __stop___llvm_prf_cnts                      
00055439  _c_int00_noargs                             
0005941c  _ctypes_                                    
20026f10  _lock                                       
00041017  _lv_anim_core_init                          
20026c14  _lv_anim_ll                                 
0003614f  _lv_area_intersect                          
000366e7  _lv_area_is_equal                           
00036501  _lv_area_is_in                              
000364af  _lv_area_is_on                              
000365fd  _lv_area_is_out                             
000362ab  _lv_area_is_point_on                        
00036215  _lv_area_join                               
00036045  _lv_area_set_pos                            
0005a0a9  _lv_bpp1_opa_table                          
0005a8bc  _lv_bpp2_opa_table                          
0005a796  _lv_bpp4_opa_table                          
0005951d  _lv_bpp8_opa_table                          
200268d8  _lv_circle_cache                            
0003fc5b  _lv_disp_get_refr_timer                     
20026c20  _lv_disp_ll                                 
0001e909  _lv_disp_refr_timer                         
00006941  _lv_draw_mask_cleanup                       
200267e0  _lv_draw_mask_list                          
0003e2cd  _lv_event_mark_deleted                      
0004c001  _lv_font_clean_up_fmt_txt                   
0003eb77  _lv_fs_init                                 
20026c2c  _lv_fsdrv_ll                                
0005412f  _lv_gc_clear_roots                          
20026cfc  _lv_grad_cache_mem                          
0003fdf5  _lv_group_init                              
20026c38  _lv_group_ll                                
000323f5  _lv_img_buf_get_transformed_area            
000546eb  _lv_img_cache_open                          
20026a60  _lv_img_cache_single                        
00034369  _lv_img_decoder_init                        
20026c44  _lv_img_decoder_ll                          
20026c50  _lv_indev_ll                                
00052503  _lv_indev_read                              
0002c0d1  _lv_indev_scroll_handler                    
0002c265  _lv_indev_scroll_throw_handler              
0001e797  _lv_inv_area                                
20026d00  _lv_layout_list                             
0004de4b  _lv_ll_chg_list                             
0004de13  _lv_ll_clear                                
0004dee3  _lv_ll_get_head                             
0004df4d  _lv_ll_get_len                              
0004df0f  _lv_ll_get_next                             
0004df2f  _lv_ll_get_prev                             
0004def9  _lv_ll_get_tail                             
0004dc25  _lv_ll_init                                 
0004dc4d  _lv_ll_ins_head                             
0004dc9f  _lv_ll_ins_prev                             
0004dd1d  _lv_ll_ins_tail                             
0004dff7  _lv_ll_is_empty                             
0004df7b  _lv_ll_move_before                          
0004dd6f  _lv_ll_remove                               
000509eb  _lv_obj_destruct                            
0003346d  _lv_obj_get_ext_draw_size                   
00033489  _lv_obj_get_layer_type                      
00012ce1  _lv_obj_scroll_by_raw                       
0001d669  _lv_obj_style_apply_color_filter            
0001d491  _lv_obj_style_create_transition             
0001cd61  _lv_obj_style_init                          
0001d6d1  _lv_obj_style_state_compare                 
20026c5c  _lv_obj_style_trans_ll                      
0001e8f3  _lv_refr_get_disp_refreshing                
0001e61b  _lv_refr_init                               
0001e8f9  _lv_refr_set_disp_refreshing                
00059d20  _lv_style_builtin_prop_flag_lookup_table    
20026d04  _lv_style_custom_prop_flag_lookup_table     
20026f58  _lv_style_custom_prop_flag_lookup_table_size
0004417b  _lv_style_get_prop_group                    
000441a7  _lv_style_prop_lookup_flags                 
20026d08  _lv_theme_basic_styles                      
20026d0c  _lv_theme_default_styles                    
20026d10  _lv_timer_act                               
0004fe6d  _lv_timer_core_init                         
20026c68  _lv_timer_ll                                
00038191  _lv_txt_cut                                 
20026e00  _lv_txt_encoded_conv_wc                     
20026e0c  _lv_txt_encoded_get_byte_id                 
20026e10  _lv_txt_encoded_get_char_id                 
00038251  _lv_txt_encoded_letter_next_2               
20026e04  _lv_txt_encoded_next                        
20026e08  _lv_txt_encoded_prev                        
20026df8  _lv_txt_encoded_size                        
20026e14  _lv_txt_get_encoded_length                  
00037e65  _lv_txt_get_next_line                       
00038113  _lv_txt_ins                                 
000380a1  _lv_txt_is_cmd                              
000381fd  _lv_txt_set_text_vfmt                       
20026dfc  _lv_txt_unicode_to_encoded                  
00054b19  _lv_utils_bsearch                           
00003497  _nop                                        
20026c74  _subs_ll                                    
200271a8  _sys_memory                                 
UNDEFED   _system_post_cinit                          
000559a3  _system_pre_init                            
20026f14  _unlock                                     
000559a7  abort                                       
00054fd9  atoi                                        
ffffffff  binit                                       
00055735  copysign                                    
00055735  copysignl                                   
0000b3ab  draw_border_generic                         
00042ef1  eARPGetCacheEntry                           
00042a7d  eARPProcessPacket                           
0003bc55  eConsiderFrameForProcessing                 
000444a1  eGetDHCPState                               
0000e5e9  eTaskGetState                               
20026f9c  errno                                       
00048911  freertos_tcp_ethernet_int                   
00054ccd  frexp                                       
00054ccd  frexpl                                      
00000000  g_pfnVectors                                
20026d14  g_ui32SysClock                              
00003451  get_tick_gsc                                
00011e85  lTCPAddRxdata                               
00050b73  lTCPWindowRxCheck                           
00050bb9  lTCPWindowTxAdd                             
00053f11  ldexp                                       
00053f11  ldexpl                                      
00041289  lv_anim_count_running                       
000411a7  lv_anim_del                                 
00041225  lv_anim_del_all                             
00041233  lv_anim_get                                 
0004112d  lv_anim_get_playtime                        
00041275  lv_anim_get_timer                           
0004103b  lv_anim_init                                
000414d9  lv_anim_path_bounce                         
00041363  lv_anim_path_ease_in                        
0004141b  lv_anim_path_ease_in_out                    
000413bd  lv_anim_path_ease_out                       
0004131d  lv_anim_path_linear                         
00041477  lv_anim_path_overshoot                      
00041637  lv_anim_path_step                           
0004130d  lv_anim_refr_now                            
000412c9  lv_anim_speed_to_time                       
00041079  lv_anim_start                               
0002362f  lv_arc_align_obj_to_angle                   
0005a1bc  lv_arc_class                                
00022f99  lv_arc_create                               
000235a1  lv_arc_get_angle_end                        
00023593  lv_arc_get_angle_start                      
000235bd  lv_arc_get_bg_angle_end                     
000235af  lv_arc_get_bg_angle_start                   
0002361f  lv_arc_get_knob_offset                      
000235eb  lv_arc_get_max_value                        
000235db  lv_arc_get_min_value                        
000235fb  lv_arc_get_mode                             
0002360f  lv_arc_get_rotation                         
000235cb  lv_arc_get_value                            
000236df  lv_arc_rotate_obj_to_angle                  
00023191  lv_arc_set_angles                           
00023383  lv_arc_set_bg_angles                        
0002329d  lv_arc_set_bg_end_angle                     
000231b3  lv_arc_set_bg_start_angle                   
0002355f  lv_arc_set_change_rate                      
000230a1  lv_arc_set_end_angle                        
00023579  lv_arc_set_knob_offset                      
000233c1  lv_arc_set_mode                             
000234ef  lv_arc_set_range                            
000233a5  lv_arc_set_rotation                         
00022fb1  lv_arc_set_start_angle                      
0002347b  lv_arc_set_value                            
00036739  lv_area_align                               
0003608b  lv_area_get_size                            
000360bb  lv_area_increase                            
00036105  lv_area_move                                
00035fd1  lv_area_set                                 
00036025  lv_area_set_height                          
00036005  lv_area_set_width                           
000542fd  lv_async_call                               
0005434b  lv_async_call_cancel                        
0004e21f  lv_atan2                                    
0005a1d8  lv_bar_class                                
00030a67  lv_bar_create                               
00030cc5  lv_bar_get_max_value                        
00030cb3  lv_bar_get_min_value                        
00030cd7  lv_bar_get_mode                             
00030c7d  lv_bar_get_start_value                      
00030c5b  lv_bar_get_value                            
00030c1d  lv_bar_set_mode                             
00030b93  lv_bar_set_range                            
00030b07  lv_bar_set_start_value                      
00030a7f  lv_bar_set_value                            
0004e149  lv_bezier3                                  
0005a1f4  lv_btn_class                                
0005532d  lv_btn_create                               
0005a210  lv_btnmatrix_class                          
000142fb  lv_btnmatrix_clear_btn_ctrl                 
00014381  lv_btnmatrix_clear_btn_ctrl_all             
00013f5b  lv_btnmatrix_create                         
0001445b  lv_btnmatrix_get_btn_text                   
00014437  lv_btnmatrix_get_map                        
00014543  lv_btnmatrix_get_one_checked                
0004ca53  lv_btnmatrix_get_popovers                   
00014449  lv_btnmatrix_get_selected_btn               
000144f7  lv_btnmatrix_has_btn_ctrl                   
00014297  lv_btnmatrix_set_btn_ctrl                   
00014347  lv_btnmatrix_set_btn_ctrl_all               
000143bb  lv_btnmatrix_set_btn_width                  
00014229  lv_btnmatrix_set_ctrl_map                   
00013f73  lv_btnmatrix_set_map                        
0001440d  lv_btnmatrix_set_one_checked                
00014255  lv_btnmatrix_set_selected_btn               
0005a22c  lv_calendar_class                           
000455a7  lv_calendar_create                          
0004587b  lv_calendar_get_btnmatrix                   
000458b5  lv_calendar_get_highlighted_dates           
000458c7  lv_calendar_get_highlighted_dates_num       
000458d9  lv_calendar_get_pressed_date                
000458a3  lv_calendar_get_showed_date                 
00045891  lv_calendar_get_today_date                  
0005a248  lv_calendar_header_arrow_class              
00051b5d  lv_calendar_header_arrow_create             
0005a264  lv_calendar_header_dropdown_class           
000528fd  lv_calendar_header_dropdown_create          
000455bf  lv_calendar_set_day_names                   
00045637  lv_calendar_set_highlighted_dates           
00045667  lv_calendar_set_showed_date                 
000455ff  lv_calendar_set_today_date                  
00000bd9  lv_chart_add_cursor                         
000009df  lv_chart_add_series                         
0005a280  lv_chart_class                              
0000033d  lv_chart_create                             
00000cb3  lv_chart_get_cursor_point                   
0000071b  lv_chart_get_point_count                    
00000745  lv_chart_get_point_pos_by_id                
00000f3b  lv_chart_get_pressed_point                  
00000bb5  lv_chart_get_series_next                    
00000703  lv_chart_get_type                           
00000f25  lv_chart_get_x_array                        
0000072f  lv_chart_get_x_start_point                  
00000f0f  lv_chart_get_y_array                        
00000669  lv_chart_get_zoom_x                         
0000067d  lv_chart_get_zoom_y                         
00000b35  lv_chart_hide_series                        
000009d3  lv_chart_refresh                            
00000afb  lv_chart_remove_series                      
00000cc9  lv_chart_set_all_value                      
00000691  lv_chart_set_axis_tick                      
00000c6d  lv_chart_set_cursor_point                   
00000c3d  lv_chart_set_cursor_pos                     
000005a7  lv_chart_set_div_line_count                 
00000ed1  lv_chart_set_ext_x_array                    
00000e93  lv_chart_set_ext_y_array                    
00000d21  lv_chart_set_next_value                     
00000d79  lv_chart_set_next_value2                    
00000417  lv_chart_set_point_count                    
000004bf  lv_chart_set_range                          
00000b65  lv_chart_set_series_color                   
00000355  lv_chart_set_type                           
0000056d  lv_chart_set_update_mode                    
00000de9  lv_chart_set_value_by_id                    
00000e31  lv_chart_set_value_by_id2                   
00000b85  lv_chart_set_x_start_point                  
000005f5  lv_chart_set_zoom_x                         
0000062f  lv_chart_set_zoom_y                         
0005a29c  lv_checkbox_class                           
00049bd3  lv_checkbox_create                          
00049c8f  lv_checkbox_get_text                        
00049beb  lv_checkbox_set_text                        
00049c51  lv_checkbox_set_text_static                 
0000db25  lv_clamp_height                             
0000da11  lv_clamp_width                              
00048ee9  lv_color_change_lightness                   
00048ecd  lv_color_darken                             
00048ddb  lv_color_fill                               
00048f39  lv_color_hsv_to_rgb                         
00048eb1  lv_color_lighten                            
000490eb  lv_color_rgb_to_hsv                         
000492b5  lv_color_to_hsv                             
0005a2b8  lv_colorwheel_class                         
0002f87d  lv_colorwheel_create                        
0002f9d7  lv_colorwheel_get_color_mode                
0002f9ef  lv_colorwheel_get_color_mode_fixed          
0002f9a7  lv_colorwheel_get_hsv                       
0002f9b9  lv_colorwheel_get_rgb                       
0002f8a1  lv_colorwheel_set_hsv                       
0002f953  lv_colorwheel_set_mode                      
0002f981  lv_colorwheel_set_mode_fixed                
0002f927  lv_colorwheel_set_rgb                       
00024b5b  lv_deinit                                   
0003fbc5  lv_disp_clean_dcache                        
00045eed  lv_disp_draw_buf_init                       
00045e6d  lv_disp_drv_init                            
00045f21  lv_disp_drv_register                        
000460d1  lv_disp_drv_update                          
0003fbf5  lv_disp_enable_invalidation                 
00046561  lv_disp_flush_is_last                       
00046547  lv_disp_flush_ready                         
000464ed  lv_disp_get_antialiasing                    
0003f777  lv_disp_get_chroma_key_color                
000462ab  lv_disp_get_default                         
00046525  lv_disp_get_dpi                             
00046591  lv_disp_get_draw_buf                        
000462b1  lv_disp_get_hor_res                         
0003fb43  lv_disp_get_inactive_time                   
0003f607  lv_disp_get_layer_sys                       
0003f5eb  lv_disp_get_layer_top                       
00046577  lv_disp_get_next                            
00046411  lv_disp_get_offset_x                        
0004647d  lv_disp_get_offset_y                        
00046335  lv_disp_get_physical_hor_res                
000463a1  lv_disp_get_physical_ver_res                
000465d7  lv_disp_get_rotation                        
0003f59d  lv_disp_get_scr_act                         
0003f5b9  lv_disp_get_scr_prev                        
0003f675  lv_disp_get_theme                           
000462f5  lv_disp_get_ver_res                         
0003fc2d  lv_disp_is_invalidation_enabled             
0003f5d5  lv_disp_load_scr                            
000461e9  lv_disp_remove                              
0003f689  lv_disp_set_bg_color                        
0003f6d9  lv_disp_set_bg_image                        
0003f725  lv_disp_set_bg_opa                          
0004629b  lv_disp_set_default                         
000465a1  lv_disp_set_rotation                        
0003f623  lv_disp_set_theme                           
0003fb9d  lv_disp_trig_activity                       
00047707  lv_draw_arc                                 
000476e5  lv_draw_arc_dsc_init                        
0004774f  lv_draw_arc_get_area                        
0004a1fb  lv_draw_img                                 
0004a405  lv_draw_img_decoded                         
0004a1cd  lv_draw_img_dsc_init                        
0005577f  lv_draw_init                                
000422c5  lv_draw_label                               
00042275  lv_draw_label_dsc_init                      
00053d71  lv_draw_layer_adjust                        
00053d93  lv_draw_layer_blend                         
00053ce7  lv_draw_layer_create                        
00053db1  lv_draw_layer_destroy                       
000429c1  lv_draw_letter                              
00054543  lv_draw_line                                
00054521  lv_draw_line_dsc_init                       
000066c7  lv_draw_mask_add                            
00006d9d  lv_draw_mask_angle_init                     
00006729  lv_draw_mask_apply                          
000067ab  lv_draw_mask_apply_ids                      
00007155  lv_draw_mask_fade_init                      
000068e7  lv_draw_mask_free_param                     
000069a1  lv_draw_mask_get_cnt                        
000069ed  lv_draw_mask_is_any                         
00006d29  lv_draw_mask_line_angle_init                
00006a99  lv_draw_mask_line_points_init               
0000719b  lv_draw_mask_map_init                       
000071d1  lv_draw_mask_polygon_init                   
00006f25  lv_draw_mask_radius_init                    
00006897  lv_draw_mask_remove_custom                  
00006857  lv_draw_mask_remove_id                      
00053055  lv_draw_rect                                
00052fd5  lv_draw_rect_dsc_init                       
0002d30f  lv_draw_sw_arc                              
000093bb  lv_draw_sw_bg                               
00017d8d  lv_draw_sw_blend                            
00017de1  lv_draw_sw_blend_basic                      
0004e71d  lv_draw_sw_buffer_convert                   
0004e629  lv_draw_sw_buffer_copy                      
0004e60b  lv_draw_sw_deinit_ctx                       
00046785  lv_draw_sw_img_decoded                      
0004e591  lv_draw_sw_init_ctx                         
00051539  lv_draw_sw_layer_adjust                     
00051589  lv_draw_sw_layer_blend                      
000513f3  lv_draw_sw_layer_create                     
00051627  lv_draw_sw_layer_destroy                    
0004a77b  lv_draw_sw_letter                           
0003939f  lv_draw_sw_line                             
0004c411  lv_draw_sw_polygon                          
0000937f  lv_draw_sw_rect                             
000351fd  lv_draw_sw_transform                        
0004e61f  lv_draw_sw_wait_for_finish                  
00054f3d  lv_draw_transform                           
00055781  lv_draw_wait_for_finish                     
00021981  lv_dropdown_add_option                      
0005a2d4  lv_dropdown_class                           
00021b17  lv_dropdown_clear_options                   
00022153  lv_dropdown_close                           
000217d7  lv_dropdown_create                          
00021e0d  lv_dropdown_get_dir                         
00021c2f  lv_dropdown_get_list                        
00021c81  lv_dropdown_get_option_cnt                  
00021d49  lv_dropdown_get_option_index                
00021c53  lv_dropdown_get_options                     
00021c6f  lv_dropdown_get_selected                    
00021ded  lv_dropdown_get_selected_highlight          
00021c9d  lv_dropdown_get_selected_str                
00021ddb  lv_dropdown_get_symbol                      
00021c41  lv_dropdown_get_text                        
00022181  lv_dropdown_is_open                         
00021e27  lv_dropdown_open                            
00021bad  lv_dropdown_set_dir                         
00021811  lv_dropdown_set_options                     
000218d9  lv_dropdown_set_options_static              
00021b69  lv_dropdown_set_selected                    
00021bff  lv_dropdown_set_selected_highlight          
00021be7  lv_dropdown_set_symbol                      
000217ef  lv_dropdown_set_text                        
0005a2f0  lv_dropdownlist_class                       
0003e269  lv_event_get_code                           
0003e88d  lv_event_get_cover_area                     
0003e25b  lv_event_get_current_target                 
0003e78b  lv_event_get_draw_ctx                       
0003e76b  lv_event_get_draw_part_dsc                  
0003e875  lv_event_get_hit_test_info                  
0003e6db  lv_event_get_indev                          
0003e7e3  lv_event_get_key                            
0003e7cb  lv_event_get_old_size                       
0003e27b  lv_event_get_param                          
0003e80b  lv_event_get_scroll_anim                    
0003e85d  lv_event_get_self_size_info                 
0003e24d  lv_event_get_target                         
0003e289  lv_event_get_user_data                      
0003e2bf  lv_event_register_id                        
0003e165  lv_event_send                               
0003e8ad  lv_event_set_cover_res                      
0003e823  lv_event_set_ext_draw_size                  
0003e297  lv_event_stop_bubbling                      
0003e2ab  lv_event_stop_processing                    
000289a7  lv_flex_init                                
0004bea5  lv_font_get_bitmap_fmt_txt                  
00053321  lv_font_get_glyph_bitmap                    
0005333b  lv_font_get_glyph_dsc                       
0004beff  lv_font_get_glyph_dsc_fmt_txt               
00053443  lv_font_get_glyph_width                     
0005a30c  lv_font_montserrat_14                       
0005422b  lv_free                                     
00052b8d  lv_free_builtin                             
0003ec73  lv_fs_close                                 
0003f269  lv_fs_dir_close                             
0003f199  lv_fs_dir_open                              
0003f21d  lv_fs_dir_read                              
0003f2af  lv_fs_drv_init                              
0003f2bd  lv_fs_drv_register                          
0003f2db  lv_fs_get_drv                               
0003f361  lv_fs_get_ext                               
0003f42f  lv_fs_get_last                              
0003f315  lv_fs_get_letters                           
0003eb83  lv_fs_is_ready                              
0003ebb1  lv_fs_open                                  
0003ef13  lv_fs_read                                  
0003eff1  lv_fs_seek                                  
0003f139  lv_fs_tell                                  
0003f3ad  lv_fs_up                                    
0003ef8f  lv_fs_write                                 
0004987d  lv_gradient_calculate                       
00049a51  lv_gradient_cleanup                         
00049743  lv_gradient_free_cache                      
00049793  lv_gradient_get                             
0004975f  lv_gradient_set_cache_size                  
0002758f  lv_grid_init                                
0003ff23  lv_group_add_obj                            
0003fe01  lv_group_create                             
0003fe65  lv_group_del                                
000402c9  lv_group_focus_freeze                       
00040271  lv_group_focus_next                         
00040195  lv_group_focus_obj                          
0004029d  lv_group_focus_prev                         
0003ff1d  lv_group_get_default                        
0004043b  lv_group_get_edge_cb                        
00040451  lv_group_get_editing                        
00040425  lv_group_get_focus_cb                       
00040403  lv_group_get_focused                        
000404a5  lv_group_get_obj_count                      
0004047b  lv_group_get_wrap                           
00040131  lv_group_remove_all_objs                    
00040061  lv_group_remove_obj                         
000402f3  lv_group_send_data                          
0003ff0d  lv_group_set_default                        
00040335  lv_group_set_edge_cb                        
00040347  lv_group_set_editing                        
00040323  lv_group_set_focus_cb                       
000403bf  lv_group_set_refocus_policy                 
000403dd  lv_group_set_wrap                           
0003ffcb  lv_group_swap_obj                           
000321df  lv_img_buf_alloc                            
00032293  lv_img_buf_free                             
000322b1  lv_img_buf_get_img_size                     
00031ad5  lv_img_buf_get_px_alpha                     
0003188d  lv_img_buf_get_px_color                     
0003215f  lv_img_buf_set_palette                      
00031ca7  lv_img_buf_set_px_alpha                     
00031edd  lv_img_buf_set_px_color                     
00054767  lv_img_cache_invalidate_src                 
0005475b  lv_img_cache_set_size                       
0004a263  lv_img_cf_get_px_size                       
0004a33f  lv_img_cf_has_alpha                         
0004a309  lv_img_cf_is_chroma_keyed                   
0005a328  lv_img_class                                
0002aefb  lv_img_create                               
00034b45  lv_img_decoder_built_in_close               
00034689  lv_img_decoder_built_in_info                
000347c1  lv_img_decoder_built_in_open                
00034a3f  lv_img_decoder_built_in_read_line           
000345b9  lv_img_decoder_close                        
00034605  lv_img_decoder_create                       
0003462d  lv_img_decoder_delete                       
000343a5  lv_img_decoder_get_info                     
00034427  lv_img_decoder_open                         
00034569  lv_img_decoder_read_line                    
00034677  lv_img_decoder_set_close_cb                 
00034641  lv_img_decoder_set_info_cb                  
00034653  lv_img_decoder_set_open_cb                  
00034665  lv_img_decoder_set_read_line_cb             
0002b623  lv_img_get_angle                            
0002b661  lv_img_get_antialias                        
0002b5fb  lv_img_get_offset_x                         
0002b60f  lv_img_get_offset_y                         
0002b635  lv_img_get_pivot                            
0002b689  lv_img_get_size_mode                        
0002b5e9  lv_img_get_src                              
0002b64f  lv_img_get_zoom                             
0002b17d  lv_img_set_angle                            
0002b575  lv_img_set_antialias                        
0002b113  lv_img_set_offset_x                         
0002b145  lv_img_set_offset_y                         
0002b2d5  lv_img_set_pivot                            
0002b5af  lv_img_set_size_mode                        
0002af13  lv_img_set_src                              
0002b423  lv_img_set_zoom                             
0004a3ad  lv_img_src_get_type                         
000524b3  lv_indev_delete                             
000523ab  lv_indev_drv_init                           
000523e5  lv_indev_drv_register                       
00052443  lv_indev_drv_update                         
0001ffd3  lv_indev_enable                             
0002002d  lv_indev_get_act                            
00020255  lv_indev_get_gesture_dir                    
00020269  lv_indev_get_key                            
000524e9  lv_indev_get_next                           
0002033f  lv_indev_get_obj_act                        
00020201  lv_indev_get_point                          
00020345  lv_indev_get_read_timer                     
00020285  lv_indev_get_scroll_dir                     
000202b9  lv_indev_get_scroll_obj                     
00020033  lv_indev_get_type                           
000202e7  lv_indev_get_vect                           
0001fead  lv_indev_read_timer_cb                      
0002004b  lv_indev_reset                              
00020145  lv_indev_reset_long_press                   
0002c615  lv_indev_scroll_get_snap_dist               
0002c591  lv_indev_scroll_throw_predict               
0002035d  lv_indev_search_obj                         
000201e5  lv_indev_set_button_points                  
00020169  lv_indev_set_cursor                         
000201bf  lv_indev_set_group                          
00020327  lv_indev_wait_release                       
00024abd  lv_init                                     
00024ab3  lv_is_initialized                           
0005a344  lv_keyboard_class                           
0004c949  lv_keyboard_create                          
0004ca79  lv_keyboard_def_event_cb                    
0004ca3f  lv_keyboard_get_mode                        
0004ca2d  lv_keyboard_get_textarea                    
0004c9fb  lv_keyboard_set_map                         
0004c995  lv_keyboard_set_mode                        
0004c9c1  lv_keyboard_set_popovers                    
0004c961  lv_keyboard_set_textarea                    
0005a360  lv_label_class                              
00015cc7  lv_label_create                             
00016765  lv_label_cut_text                           
000161e1  lv_label_get_letter_on                      
00015fc9  lv_label_get_letter_pos                     
00015f7f  lv_label_get_long_mode                      
00015f97  lv_label_get_recolor                        
00015f6d  lv_label_get_text                           
000166bf  lv_label_get_text_selection_end             
000166ad  lv_label_get_text_selection_start           
000166d5  lv_label_ins_text                           
0001643d  lv_label_is_char_under_pos                  
00015e59  lv_label_set_long_mode                      
00015ef5  lv_label_set_recolor                        
00015cdf  lv_label_set_text                           
00015d93  lv_label_set_text_fmt                       
00015f55  lv_label_set_text_selection_end             
00015f37  lv_label_set_text_selection_start           
00015e0f  lv_label_set_text_static                    
0000c543  lv_layout_register                          
0005a37c  lv_led_class                                
0004d905  lv_led_create                               
0004d9cb  lv_led_get_brightness                       
0004d997  lv_led_off                                  
0004d989  lv_led_on                                   
0004d939  lv_led_set_brightness                       
0004d91d  lv_led_set_color                            
0004d9a5  lv_led_toggle                               
0005a398  lv_line_class                               
0004f085  lv_line_create                              
0004f10f  lv_line_get_y_invert                        
0004f09d  lv_line_set_points                          
0004f0cd  lv_line_set_y_invert                        
0005a3b4  lv_list_btn_class                           
0005a3d0  lv_list_class                               
0005a3ec  lv_list_text_class                          
0005420d  lv_malloc                                   
00052b45  lv_malloc_builtin                           
0004e3f3  lv_map                                      
00052abf  lv_mem_deinit_builtin                       
00052aad  lv_mem_init_builtin                         
000542df  lv_mem_monitor                              
00052acf  lv_mem_monitor_builtin                      
000542c9  lv_mem_test                                 
00052bbb  lv_mem_test_builtin                         
0005427d  lv_memcpy                                   
0004b8fd  lv_memcpy_builtin                           
00054291  lv_memset                                   
0004bd39  lv_memset_builtin                           
0003a571  lv_menu_back_btn_is_root                    
0005a408  lv_menu_class                               
0003a5a5  lv_menu_clear_history                       
0005a424  lv_menu_cont_class                          
00039fdf  lv_menu_cont_create                         
00039f8d  lv_menu_create                              
0003a4fd  lv_menu_get_cur_main_page                   
0003a50f  lv_menu_get_cur_sidebar_page                
0003a521  lv_menu_get_main_header                     
0003a533  lv_menu_get_main_header_back_btn            
0003a549  lv_menu_get_sidebar_header                  
0003a55b  lv_menu_get_sidebar_header_back_btn         
0005a440  lv_menu_main_cont_class                     
0005a45c  lv_menu_main_header_cont_class              
0005a478  lv_menu_page_class                          
00039fa5  lv_menu_page_create                         
0005a494  lv_menu_section_class                       
00039ff7  lv_menu_section_create                      
0005a4b0  lv_menu_separator_class                     
0003a00f  lv_menu_separator_create                    
0003a3c9  lv_menu_set_load_page_event                 
0003a345  lv_menu_set_mode_header                     
0003a38f  lv_menu_set_mode_root_back_btn              
0003a075  lv_menu_set_page                            
0003a43b  lv_menu_set_page_title                      
0003a4ad  lv_menu_set_page_title_static               
0003a1e1  lv_menu_set_sidebar_page                    
0005a4cc  lv_menu_sidebar_cont_class                  
0005a4e8  lv_menu_sidebar_header_cont_class           
00029dc9  lv_meter_add_arc                            
00029d63  lv_meter_add_needle_img                     
00029cff  lv_meter_add_needle_line                    
00029bf9  lv_meter_add_scale                          
00029e31  lv_meter_add_scale_lines                    
0005a504  lv_meter_class                              
00029be1  lv_meter_create                             
00029f7d  lv_meter_set_indicator_end_value            
00029f21  lv_meter_set_indicator_start_value          
00029ea3  lv_meter_set_indicator_value                
00029c95  lv_meter_set_scale_major_ticks              
00029cd1  lv_meter_set_scale_range                    
00029c5f  lv_meter_set_scale_ticks                    
0005a520  lv_msgbox_backdrop_class                    
0005a53c  lv_msgbox_class                             
0003e30b  lv_obj_add_event_cb                         
00024b8b  lv_obj_add_flag                             
00024c91  lv_obj_add_state                            
0001cd71  lv_obj_add_style                            
0000c5a9  lv_obj_align                                
0000c5e5  lv_obj_align_to                             
00024da9  lv_obj_allocate_spec_attr                   
0000d78d  lv_obj_area_is_visible                      
0003322b  lv_obj_calculate_ext_draw_size              
0001dad1  lv_obj_calculate_style_text_align           
00024df7  lv_obj_check_type                           
0005a558  lv_obj_class                                
00050843  lv_obj_class_create_obj                     
00050973  lv_obj_class_init_obj                       
00046f31  lv_obj_clean                                
00024c0b  lv_obj_clear_flag                           
00024ccf  lv_obj_clear_state                          
00024b73  lv_obj_create                               
00046ea5  lv_obj_del                                  
00046fc5  lv_obj_del_anim_ready_cb                    
00046fd3  lv_obj_del_async                            
00046f83  lv_obj_del_delayed                          
000333c1  lv_obj_draw_dsc_init                        
000333d7  lv_obj_draw_part_check_type                 
0001d20f  lv_obj_enable_style_refresh                 
0003e1db  lv_obj_event_base                           
0001da13  lv_obj_fade_in                              
0001da61  lv_obj_fade_out                             
0004732d  lv_obj_get_child                            
00047385  lv_obj_get_child_cnt                        
00024e55  lv_obj_get_class                            
0000d93d  lv_obj_get_click_area                       
0000ccd1  lv_obj_get_content_coords                   
0000cc8b  lv_obj_get_content_height                   
0000cc45  lv_obj_get_content_width                    
0000caff  lv_obj_get_coords                           
000472af  lv_obj_get_disp                             
0003e679  lv_obj_get_event_user_data                  
00024d7d  lv_obj_get_group                            
0000cc37  lv_obj_get_height                           
0004739f  lv_obj_get_index                            
0001d387  lv_obj_get_local_style_prop                 
00047317  lv_obj_get_parent                           
00047291  lv_obj_get_screen                           
00012499  lv_obj_get_scroll_bottom                    
000123df  lv_obj_get_scroll_dir                       
00012817  lv_obj_get_scroll_end                       
000125a1  lv_obj_get_scroll_left                      
000126e7  lv_obj_get_scroll_right                     
000123fd  lv_obj_get_scroll_snap_x                    
0001241b  lv_obj_get_scroll_snap_y                    
00012479  lv_obj_get_scroll_top                       
00012439  lv_obj_get_scroll_x                         
00012459  lv_obj_get_scroll_y                         
00012dcd  lv_obj_get_scrollbar_area                   
000123c1  lv_obj_get_scrollbar_mode                   
0000cd67  lv_obj_get_self_height                      
0000cd4d  lv_obj_get_self_width                       
00024d45  lv_obj_get_state                            
0001d229  lv_obj_get_style_prop                       
0000d4c9  lv_obj_get_transformed_area                 
0000cc29  lv_obj_get_width                            
0000cb11  lv_obj_get_x                                
0000cb77  lv_obj_get_x2                               
0000cc0d  lv_obj_get_x_aligned                        
0000cb8f  lv_obj_get_y                                
0000cbf5  lv_obj_get_y2                               
0000cc1b  lv_obj_get_y_aligned                        
00024e25  lv_obj_has_class                            
00024cfd  lv_obj_has_flag                             
00024d23  lv_obj_has_flag_any                         
00024d53  lv_obj_has_state                            
0000d99d  lv_obj_hit_test                             
00033173  lv_obj_init_draw_arc_dsc                    
00032fcd  lv_obj_init_draw_img_dsc                    
00032f07  lv_obj_init_draw_label_dsc                  
00033095  lv_obj_init_draw_line_dsc                   
00032bdf  lv_obj_init_draw_rect_dsc                   
0000d72d  lv_obj_invalidate                           
0000d6f1  lv_obj_invalidate_area                      
00050a21  lv_obj_is_editable                          
00050a69  lv_obj_is_group_def                         
0000c489  lv_obj_is_layout_positioned                 
00012d59  lv_obj_is_scrolling                         
00024e63  lv_obj_is_valid                             
0000d8c3  lv_obj_is_visible                           
0000c4c1  lv_obj_mark_layout_as_dirty                 
0000d389  lv_obj_move_children_by                     
0000d1c3  lv_obj_move_to                              
00047107  lv_obj_move_to_index                        
00013807  lv_obj_readjust_scroll                      
0001e663  lv_obj_redraw                               
0000cdcd  lv_obj_refr_pos                             
0000bf1f  lv_obj_refr_size                            
000333ff  lv_obj_refresh_ext_draw_size                
0000cd81  lv_obj_refresh_self_size                    
0001d099  lv_obj_refresh_style                        
0003e3dd  lv_obj_remove_event_cb                      
0003e4b5  lv_obj_remove_event_cb_with_user_data       
0003e5a9  lv_obj_remove_event_dsc                     
0001d3f3  lv_obj_remove_local_style_prop              
0001ce91  lv_obj_remove_style                         
0001d04d  lv_obj_report_style_change                  
000129f5  lv_obj_scroll_by                            
0001285f  lv_obj_scroll_by_bounded                    
00012bbf  lv_obj_scroll_to                            
00012c69  lv_obj_scroll_to_view                       
00012c8f  lv_obj_scroll_to_view_recursive             
00012bed  lv_obj_scroll_to_x                          
00012c2b  lv_obj_scroll_to_y                          
000137c1  lv_obj_scrollbar_invalidate                 
0000c593  lv_obj_set_align                            
0000c421  lv_obj_set_content_height                   
0000c3d3  lv_obj_set_content_width                    
0000d923  lv_obj_set_ext_click_area                   
00028a01  lv_obj_set_flex_align                       
000289df  lv_obj_set_flex_flow                        
00028a43  lv_obj_set_flex_grow                        
0002762d  lv_obj_set_grid_align                       
00027659  lv_obj_set_grid_cell                        
00027603  lv_obj_set_grid_dsc_array                   
0000c395  lv_obj_set_height                           
0000c46f  lv_obj_set_layout                           
0001d317  lv_obj_set_local_style_prop                 
0001d34d  lv_obj_set_local_style_prop_meta            
00046fe1  lv_obj_set_parent                           
0000be81  lv_obj_set_pos                              
00012343  lv_obj_set_scroll_dir                       
00012379  lv_obj_set_scroll_snap_x                    
0001239d  lv_obj_set_scroll_snap_y                    
00012307  lv_obj_set_scrollbar_mode                   
0000c335  lv_obj_set_size                             
0003acaf  lv_obj_set_style_align                      
0003b663  lv_obj_set_style_anim                       
0003b6a3  lv_obj_set_style_anim_speed                 
0003b683  lv_obj_set_style_anim_time                  
0003b44f  lv_obj_set_style_arc_color                  
0003b499  lv_obj_set_style_arc_img_src                
0003b475  lv_obj_set_style_arc_opa                    
0003b42b  lv_obj_set_style_arc_rounded                
0003b407  lv_obj_set_style_arc_width                  
0003b72b  lv_obj_set_style_base_dir                   
0003aecb  lv_obj_set_style_bg_color                   
0003afc7  lv_obj_set_style_bg_dither_mode             
0003afa7  lv_obj_set_style_bg_grad                    
0003af15  lv_obj_set_style_bg_grad_color              
0003af3b  lv_obj_set_style_bg_grad_dir                
0003af83  lv_obj_set_style_bg_grad_stop               
0003b00b  lv_obj_set_style_bg_img_opa                 
0003b02f  lv_obj_set_style_bg_img_recolor             
0003b055  lv_obj_set_style_bg_img_recolor_opa         
0003afeb  lv_obj_set_style_bg_img_src                 
0003b079  lv_obj_set_style_bg_img_tiled               
0003af5f  lv_obj_set_style_bg_main_stop               
0003aef1  lv_obj_set_style_bg_opa                     
0003b6e3  lv_obj_set_style_blend_mode                 
0003b09d  lv_obj_set_style_border_color               
0003b0c3  lv_obj_set_style_border_opa                 
0003b12f  lv_obj_set_style_border_post                
0003b10b  lv_obj_set_style_border_side                
0003b0e7  lv_obj_set_style_border_width               
0003b5d7  lv_obj_set_style_clip_corner                
0003b61f  lv_obj_set_style_color_filter_dsc           
0003b63f  lv_obj_set_style_color_filter_opa           
00028b3b  lv_obj_set_style_flex_cross_place           
00028aef  lv_obj_set_style_flex_flow                  
00028b87  lv_obj_set_style_flex_grow                  
00028b15  lv_obj_set_style_flex_main_place            
00028b61  lv_obj_set_style_flex_track_place           
00027887  lv_obj_set_style_grid_cell_column_pos       
000278ad  lv_obj_set_style_grid_cell_column_span      
000278d3  lv_obj_set_style_grid_cell_row_pos          
000278f9  lv_obj_set_style_grid_cell_row_span         
0002791f  lv_obj_set_style_grid_cell_x_align          
00027945  lv_obj_set_style_grid_cell_y_align          
00027861  lv_obj_set_style_grid_column_align          
0002780f  lv_obj_set_style_grid_column_dsc_array      
00027831  lv_obj_set_style_grid_row_align             
000277ed  lv_obj_set_style_grid_row_dsc_array         
0003abfb  lv_obj_set_style_height                     
0003b2bf  lv_obj_set_style_img_opa                    
0003b2e3  lv_obj_set_style_img_recolor                
0003b309  lv_obj_set_style_img_recolor_opa            
0003b707  lv_obj_set_style_layout                     
0003b3bd  lv_obj_set_style_line_color                 
0003b375  lv_obj_set_style_line_dash_gap              
0003b351  lv_obj_set_style_line_dash_width            
0003b3e3  lv_obj_set_style_line_opa                   
0003b399  lv_obj_set_style_line_rounded               
0003b32d  lv_obj_set_style_line_width                 
0003ac43  lv_obj_set_style_max_height                 
0003abd7  lv_obj_set_style_max_width                  
0003ac1f  lv_obj_set_style_min_height                 
0003abb3  lv_obj_set_style_min_width                  
0003b5fb  lv_obj_set_style_opa                        
0003b177  lv_obj_set_style_outline_color              
0003b19d  lv_obj_set_style_outline_opa                
0003b1c1  lv_obj_set_style_outline_pad                
0003b153  lv_obj_set_style_outline_width              
0003ae17  lv_obj_set_style_pad_bottom                 
0003aea7  lv_obj_set_style_pad_column                 
0003ae3b  lv_obj_set_style_pad_left                   
0003ae5f  lv_obj_set_style_pad_right                  
0003ae83  lv_obj_set_style_pad_row                    
0003adf3  lv_obj_set_style_pad_top                    
0003b5b3  lv_obj_set_style_radius                     
0003b275  lv_obj_set_style_shadow_color               
0003b209  lv_obj_set_style_shadow_ofs_x               
0003b22d  lv_obj_set_style_shadow_ofs_y               
0003b29b  lv_obj_set_style_shadow_opa                 
0003b251  lv_obj_set_style_shadow_spread              
0003b1e5  lv_obj_set_style_shadow_width               
0003b58f  lv_obj_set_style_text_align                 
0003b4b9  lv_obj_set_style_text_color                 
0003b56b  lv_obj_set_style_text_decor                 
0003b503  lv_obj_set_style_text_font                  
0003b523  lv_obj_set_style_text_letter_space          
0003b547  lv_obj_set_style_text_line_space            
0003b4df  lv_obj_set_style_text_opa                   
0003ad87  lv_obj_set_style_transform_angle            
0003acf7  lv_obj_set_style_transform_height           
0003adab  lv_obj_set_style_transform_pivot_x          
0003adcf  lv_obj_set_style_transform_pivot_y          
0003acd3  lv_obj_set_style_transform_width            
0003ad63  lv_obj_set_style_transform_zoom             
0003b6c3  lv_obj_set_style_transition                 
0003ad1b  lv_obj_set_style_translate_x                
0003ad3f  lv_obj_set_style_translate_y                
0003ab8f  lv_obj_set_style_width                      
0003ac67  lv_obj_set_style_x                          
0003ac8b  lv_obj_set_style_y                          
00050215  lv_obj_set_tile                             
00050267  lv_obj_set_tile_id                          
0000c357  lv_obj_set_width                            
0000bea3  lv_obj_set_x                                
0000bee1  lv_obj_set_y                                
0001dac1  lv_obj_style_get_selector_part              
0001daaf  lv_obj_style_get_selector_state             
000471e9  lv_obj_swap                                 
0000d42b  lv_obj_transform_point                      
000473e7  lv_obj_tree_walk                            
0000c501  lv_obj_update_layout                        
00012d91  lv_obj_update_snap                          
00049345  lv_palette_darken                           
000492f7  lv_palette_lighten                          
000492d7  lv_palette_main                             
00036b2d  lv_point_transform                          
0004e391  lv_pow                                      
0004e479  lv_rand                                     
00054243  lv_realloc                                  
00052b79  lv_realloc_builtin                          
0001e61d  lv_refr_now                                 
0005a574  lv_roller_class                             
0002e61b  lv_roller_create                            
0002ea3b  lv_roller_get_option_cnt                    
0002ea2b  lv_roller_get_options                       
0002e93d  lv_roller_get_selected                      
0002e97f  lv_roller_get_selected_str                  
0005a590  lv_roller_label_class                       
0002e633  lv_roller_set_options                       
0002e7fd  lv_roller_set_selected                      
0002e8e9  lv_roller_set_visible_row_count             
0003f79b  lv_scr_load_anim                            
0005a5ac  lv_slider_class                             
00033607  lv_slider_create                            
0003361f  lv_slider_is_dragged                        
00039317  lv_snprintf_builtin                         
0005a5c8  lv_spinbox_class                            
0004070d  lv_spinbox_create                           
00040ab7  lv_spinbox_decrement                        
00040a11  lv_spinbox_get_rollover                     
00040967  lv_spinbox_get_step                         
00040955  lv_spinbox_get_value                        
00040a2d  lv_spinbox_increment                        
000408af  lv_spinbox_set_cursor_pos                   
00040783  lv_spinbox_set_digit_format                 
0004092d  lv_spinbox_set_digit_step_direction         
00040861  lv_spinbox_set_range                        
0004075d  lv_spinbox_set_rollover                     
00040849  lv_spinbox_set_step                         
00040725  lv_spinbox_set_value                        
00040979  lv_spinbox_step_next                        
000409a9  lv_spinbox_step_prev                        
0005a5e4  lv_spinner_class                            
00052cb9  lv_spinner_create                           
0004e1cf  lv_sqrt                                     
000542a9  lv_strlen                                   
0004be3d  lv_strlen_builtin                           
000542b5  lv_strncpy                                  
0004be61  lv_strncpy_builtin                          
00043e83  lv_style_get_num_custom_props               
0004402f  lv_style_get_prop                           
00043db1  lv_style_init                               
0004415f  lv_style_is_empty                           
00044095  lv_style_prop_get_default                   
00043de9  lv_style_register_prop                      
00043e8d  lv_style_remove_prop                        
00043dbf  lv_style_reset                              
00044dc1  lv_style_set_align                          
000454c3  lv_style_set_anim                           
000454ef  lv_style_set_anim_speed                     
000454d9  lv_style_set_anim_time                      
00045345  lv_style_set_arc_color                      
0004537b  lv_style_set_arc_img_src                    
00045361  lv_style_set_arc_opa                        
0004532b  lv_style_set_arc_rounded                    
00045311  lv_style_set_arc_width                      
0004554f  lv_style_set_base_dir                       
00044f47  lv_style_set_bg_color                       
00044ffd  lv_style_set_bg_dither_mode                 
00044fe7  lv_style_set_bg_grad                        
00044f7d  lv_style_set_bg_grad_color                  
00044f99  lv_style_set_bg_grad_dir                    
00044fcd  lv_style_set_bg_grad_stop                   
0004502d  lv_style_set_bg_img_opa                     
00045047  lv_style_set_bg_img_recolor                 
00045063  lv_style_set_bg_img_recolor_opa             
00045017  lv_style_set_bg_img_src                     
0004507d  lv_style_set_bg_img_tiled                   
00044fb3  lv_style_set_bg_main_stop                   
00044f63  lv_style_set_bg_opa                         
0004551b  lv_style_set_blend_mode                     
00045097  lv_style_set_border_color                   
000450b3  lv_style_set_border_opa                     
00045101  lv_style_set_border_post                    
000450e7  lv_style_set_border_side                    
000450cd  lv_style_set_border_width                   
0004545f  lv_style_set_clip_corner                    
00045493  lv_style_set_color_filter_dsc               
000454a9  lv_style_set_color_filter_opa               
00028a9b  lv_style_set_flex_cross_place               
00028a63  lv_style_set_flex_flow                      
00028ad3  lv_style_set_flex_grow                      
00028a7f  lv_style_set_flex_main_place                
00028ab7  lv_style_set_flex_track_place               
00027735  lv_style_set_grid_cell_column_pos           
00027759  lv_style_set_grid_cell_column_span          
00027779  lv_style_set_grid_cell_row_pos              
00027799  lv_style_set_grid_cell_row_span             
000277b5  lv_style_set_grid_cell_x_align              
000277d1  lv_style_set_grid_cell_y_align              
00027715  lv_style_set_grid_column_align              
000276d9  lv_style_set_grid_column_dsc_array          
000276f5  lv_style_set_grid_row_align                 
000276bd  lv_style_set_grid_row_dsc_array             
00044d3f  lv_style_set_height                         
00045223  lv_style_set_img_opa                        
0004523d  lv_style_set_img_recolor                    
00045259  lv_style_set_img_recolor_opa                
00045535  lv_style_set_layout                         
000452db  lv_style_set_line_color                     
000452a7  lv_style_set_line_dash_gap                  
0004528d  lv_style_set_line_dash_width                
000452f7  lv_style_set_line_opa                       
000452c1  lv_style_set_line_rounded                   
00045273  lv_style_set_line_width                     
00044d73  lv_style_set_max_height                     
00044d25  lv_style_set_max_width                      
00044d59  lv_style_set_min_height                     
00044d0b  lv_style_set_min_width                      
00045479  lv_style_set_opa                            
00045135  lv_style_set_outline_color                  
00045151  lv_style_set_outline_opa                    
0004516b  lv_style_set_outline_pad                    
0004511b  lv_style_set_outline_width                  
00044ec5  lv_style_set_pad_bottom                     
00044f2d  lv_style_set_pad_column                     
00044edf  lv_style_set_pad_left                       
00044ef9  lv_style_set_pad_right                      
00044f13  lv_style_set_pad_row                        
00044eab  lv_style_set_pad_top                        
00043ff1  lv_style_set_prop                           
0004400b  lv_style_set_prop_meta                      
00045445  lv_style_set_radius                         
000451ed  lv_style_set_shadow_color                   
0004519f  lv_style_set_shadow_ofs_x                   
000451b9  lv_style_set_shadow_ofs_y                   
00045209  lv_style_set_shadow_opa                     
000451d3  lv_style_set_shadow_spread                  
00045185  lv_style_set_shadow_width                   
0004542b  lv_style_set_text_align                     
00045391  lv_style_set_text_color                     
00045411  lv_style_set_text_decor                     
000453c7  lv_style_set_text_font                      
000453dd  lv_style_set_text_letter_space              
000453f7  lv_style_set_text_line_space                
000453ad  lv_style_set_text_opa                       
00044e5d  lv_style_set_transform_angle                
00044df5  lv_style_set_transform_height               
00044e77  lv_style_set_transform_pivot_x              
00044e91  lv_style_set_transform_pivot_y              
00044ddb  lv_style_set_transform_width                
00044e43  lv_style_set_transform_zoom                 
00045505  lv_style_set_transition                     
00044e0f  lv_style_set_translate_x                    
00044e29  lv_style_set_translate_y                    
00044cf1  lv_style_set_width                          
00044d8d  lv_style_set_x                              
00044da7  lv_style_set_y                              
00044051  lv_style_transition_dsc_init                
0005a600  lv_switch_class                             
0004ae73  lv_switch_create                            
0001b5a5  lv_table_add_cell_ctrl                      
0005a61c  lv_table_class                              
0001b671  lv_table_clear_cell_ctrl                    
0001b0b5  lv_table_create                             
0001b73d  lv_table_get_cell_value                     
0001b7b5  lv_table_get_col_cnt                        
0001b7c7  lv_table_get_col_width                      
0001b7a3  lv_table_get_row_cnt                        
0001b877  lv_table_get_selected_cell                  
0001b7f5  lv_table_has_cell_ctrl                      
0001b0cd  lv_table_set_cell_value                     
0001b1bf  lv_table_set_cell_value_fmt                 
0001b3f9  lv_table_set_col_cnt                        
0001b561  lv_table_set_col_width                      
0001b2ed  lv_table_set_row_cnt                        
00047e7d  lv_tabview_add_tab                          
0005a638  lv_tabview_class                            
00047e4d  lv_tabview_create                           
0004815b  lv_tabview_get_content                      
00048149  lv_tabview_get_tab_act                      
00048169  lv_tabview_get_tab_btns                     
00047fdf  lv_tabview_rename_tab                       
00048055  lv_tabview_set_act                          
00019559  lv_textarea_add_char                        
0001966b  lv_textarea_add_text                        
0005a654  lv_textarea_class                           
0001a03d  lv_textarea_clear_selection                 
00019541  lv_textarea_create                          
0001a0c1  lv_textarea_cursor_down                     
0001a09b  lv_textarea_cursor_left                     
0001a07f  lv_textarea_cursor_right                    
0001a15b  lv_textarea_cursor_up                       
00019799  lv_textarea_del_char                        
0001986f  lv_textarea_del_char_forward                
00019f6f  lv_textarea_get_accepted_chars              
00019ff5  lv_textarea_get_current_char                
00019ebf  lv_textarea_get_cursor_click_pos            
00019ead  lv_textarea_get_cursor_pos                  
00019e9b  lv_textarea_get_label                       
00019f81  lv_textarea_get_max_length                  
00019f49  lv_textarea_get_one_line                    
00019f0d  lv_textarea_get_password_bullet             
00019ee7  lv_textarea_get_password_mode               
00019fe3  lv_textarea_get_password_show_time          
00019e7f  lv_textarea_get_placeholder_text            
00019e55  lv_textarea_get_text                        
00019fc3  lv_textarea_get_text_selection              
00019d6f  lv_textarea_set_accepted_chars              
00019df5  lv_textarea_set_align                       
00019b67  lv_textarea_set_cursor_click_pos            
00019a21  lv_textarea_set_cursor_pos                  
00019d9b  lv_textarea_set_insert_replace              
00019d85  lv_textarea_set_max_length                  
00019cc1  lv_textarea_set_one_line                    
00019c4b  lv_textarea_set_password_bullet             
00019b99  lv_textarea_set_password_mode               
00019ddb  lv_textarea_set_password_show_time          
000199a9  lv_textarea_set_placeholder_text            
00019899  lv_textarea_set_text                        
00019dad  lv_textarea_set_text_selection              
00019f93  lv_textarea_text_is_selected                
00053497  lv_theme_apply                              
00005385  lv_theme_default_get                        
000052b5  lv_theme_default_init                       
00005395  lv_theme_default_is_inited                  
00053529  lv_theme_get_color_primary                  
0005354f  lv_theme_get_color_secondary                
0005350f  lv_theme_get_font_large                     
000534f5  lv_theme_get_font_normal                    
000534db  lv_theme_get_font_small                     
00053479  lv_theme_get_from_obj                       
000534c9  lv_theme_set_apply_cb                       
000534b7  lv_theme_set_parent                         
00054add  lv_tick_elaps                               
00054abf  lv_tick_get                                 
00054aa5  lv_tick_inc                                 
000501d9  lv_tileview_add_tile                        
0005a670  lv_tileview_class                           
000501c1  lv_tileview_create                          
00050309  lv_tileview_get_tile_act                    
0005a68c  lv_tileview_tile_class                      
0004ffcd  lv_timer_create                             
0004ffbd  lv_timer_create_basic                       
0005003d  lv_timer_del                                
000500c7  lv_timer_enable                             
000500db  lv_timer_get_idle                           
000500e1  lv_timer_get_next                           
0004fe7f  lv_timer_handler                            
00050057  lv_timer_pause                              
00050091  lv_timer_ready                              
000500b9  lv_timer_reset                              
0005006b  lv_timer_resume                             
0005002b  lv_timer_set_cb                             
0005007f  lv_timer_set_period                         
000500a7  lv_timer_set_repeat_count                   
00026edf  lv_tlsf_add_pool                            
00026ec9  lv_tlsf_align_size                          
00026edb  lv_tlsf_alloc_overhead                      
00026e89  lv_tlsf_block_size                          
00026ed1  lv_tlsf_block_size_max                      
00026ecd  lv_tlsf_block_size_min                      
00026c5b  lv_tlsf_check                               
00026ea9  lv_tlsf_check_pool                          
00026fd5  lv_tlsf_create                              
00026ff7  lv_tlsf_create_with_pool                    
00027021  lv_tlsf_destroy                             
00027145  lv_tlsf_free                                
0002702b  lv_tlsf_get_pool                            
0002703b  lv_tlsf_malloc                              
00027075  lv_tlsf_memalign                            
00026ed7  lv_tlsf_pool_overhead                       
0002719b  lv_tlsf_realloc                             
00026f6f  lv_tlsf_remove_pool                         
00026ec3  lv_tlsf_size                                
00026e1b  lv_tlsf_walk_pool                           
0004e07d  lv_trigo_sin                                
00037b7b  lv_txt_get_size                             
00037fe3  lv_txt_get_width                            
0003934b  lv_vsnprintf_builtin                        
000530e5  lv_win_add_btn                              
000530ad  lv_win_add_title                            
0005a6a8  lv_win_class                                
00053089  lv_win_create                               
00053141  lv_win_get_content                          
00053133  lv_win_get_header                           
00050e25  main                                        
000556ff  memccpy                                     
0005567d  memcmp                                      
00054775  memcpy                                      
000555e3  memmove                                     
000549bb  memset                                      
00037a7f  pcQueueGetName                              
0000ed91  pcTaskGetName                               
0004f40b  prvCheckOptions                             
0004f5e9  prvCheckRxData                              
00055501  prvCommandInterpreterTask                   
000531f3  prvDisplayTask                              
0003df29  prvHandleListen                             
0005590b  prvModbusTask                               
00041a41  prvProcessNetworkDownEvent                  
0003cc3d  prvSendData                                 
0003cbb7  prvSetOptions                               
0003c885  prvSetSynAckOptions                         
00054d31  prvSocketSetMSS                             
0004f6b5  prvStoreRxData                              
0003cb71  prvTCPAddTxData                             
0003c8cd  prvTCPBufferResize                          
0003c699  prvTCPCreateWindow                          
0003dd07  prvTCPHandleState                           
0003c985  prvTCPPrepareSend                           
0003c391  prvTCPReturnPacket                          
0003cce5  prvTCPSendChallengeAck                      
0003c29b  prvTCPSendPacket                            
0003c335  prvTCPSendRepeated                          
0003ccf3  prvTCPSendReset                             
0003d755  prvTCPSocketIsActive                        
0003d7b3  prvTCPStatusAgeCheck                        
0004eccd  pvPortMalloc                                
0000fb57  pvTaskIncrementMutexHeldCount               
20026e18  pxARPWaitingNetworkBuffer                   
20026d4c  pxCurrentTCB                                
00041969  pxDuplicateNetworkBufferWithDescriptor      
00051e1f  pxGetNetworkBufferWithDescriptor            
00051eab  pxNetworkBufferGetFromISR                   
00041a01  pxPacketBuffer_to_NetworkBuffer             
000536e5  pxPortInitialiseStack                       
00051f89  pxResizeNetworkBufferWithDescriptor         
00011ccd  pxTCPSocketLookup                           
00041a0f  pxUDPPayloadBuffer_to_NetworkBuffer         
00010e53  pxUDPSocketLookup                           
0005546d  rand                                        
00053f11  scalbn                                      
00053f11  scalbnl                                     
00055025  snprintf                                    
000551cd  sprintf                                     
000556e1  strcat                                      
00055861  strchr                                      
000557af  strcmp                                      
000558a1  strcpy                                      
000558b5  strlen                                      
000555b7  strncmp                                     
00055365  strncpy                                     
000377ab  ucQueueGetQueueType                         
00051043  ulApplicationGetNextSequenceNumber          
000420d3  ulChar2u32                                  
0005a8c8  ulMaxSyscallInterruptPriority               
000543e9  ulPortGetIPSR                               
00050d91  ulTCPWindowTxAck                            
00050c55  ulTCPWindowTxGet                            
0000fb79  ulTaskGenericNotifyTake                     
000101e5  ulTaskGenericNotifyValueClear               
000420f9  usChar2u16                                  
00041d29  usGenerateChecksum                          
00041a83  usGenerateProtocolChecksum                  
20026e20  usPacketIdentifier                          
0004ec9b  uxEventGroupGetNumber                       
00051f7d  uxGetMinimumFreeNetworkBuffers              
00051f83  uxGetNumberOfFreeNetworkBuffers             
00053b67  uxListRemove                                
0003778b  uxQueueGetQueueNumber                       
00037729  uxQueueMessagesWaiting                      
0003775f  uxQueueMessagesWaitingFromISR               
0003773f  uxQueueSpacesAvailable                      
0004f943  uxStreamBufferAdd                           
0004f7cd  uxStreamBufferDistance                      
0004f81b  uxStreamBufferFrontSpace                    
0004fa31  uxStreamBufferGet                           
0004f90d  uxStreamBufferGetPtr                        
0004f837  uxStreamBufferGetSize                       
0004f7ff  uxStreamBufferGetSpace                      
0004f853  uxStreamBufferMidSpace                      
0004f799  uxStreamBufferSpace                         
0000ed81  uxTaskGetNumberOfTasks                      
0000f7a5  uxTaskGetStackHighWaterMark                 
0000edcd  uxTaskGetSystemState                        
0000f51d  uxTaskGetTaskNumber                         
0000e6ab  uxTaskPriorityGet                           
0000e6d5  uxTaskPriorityGetFromISR                    
0000fb35  uxTaskResetEventItemValue                   
0005a8cc  uxTopUsedPriority                           
00043057  vARPAgeCache                                
0004321d  vARPGenerateRequestPacket                   
00042d3d  vARPRefreshCacheEntry                       
0004311f  vARPSendGratuitous                          
0005178b  vARPTimerReload                             
00051015  vApplicationIPNetworkEventHook              
00050ffd  vApplicationIdleHook                        
00050ff5  vApplicationMallocFailedHook                
00050fff  vApplicationStackOverflowHook               
0005100b  vApplicationTickHook                        
00051691  vCheckNetworkTimers                         
000444a7  vDHCPProcess                                
00044489  vDHCPSetPreferredIPAddress                  
00051799  vDHCPTimerReload                            
0004ec55  vEventGroupClearBitsCallback                
0004ec11  vEventGroupDelete                           
0004ec45  vEventGroupSetBitsCallback                  
0004ecbb  vEventGroupSetNumber                        
0003b8c1  vIPNetworkUpCalls                           
00051851  vIPSetARPResolutionTimerEnableState         
0005182d  vIPSetARPTimerEnableState                   
00051875  vIPSetDHCPTimerEnableState                  
000517ff  vIPSetTCPTimerExpiredState                  
00051757  vIPTimerStartARPResolution                  
00053a85  vListInitialise                             
00053ab5  vListInitialiseItem                         
00053b01  vListInsert                                 
00053ac5  vListInsertEnd                              
00051efb  vNetworkBufferReleaseFromISR                
0004872d  vNetworkInterfaceAllocateRAMToBuffers       
00010373  vNetworkSocketsInit                         
000433af  vPhyInitialise                              
000544a5  vPortEnableVFP                              
00053785  vPortEndScheduler                           
00053787  vPortEnterCritical                          
000537a7  vPortExitCritical                           
0004edfb  vPortFree                                   
0004efad  vPortGetHeapStats                           
0004ee61  vPortInitialiseBlocks                       
00054461  vPortSVCHandler                             
000537e3  vPortSetupTimerInterrupt                    
00054481  vPortStartFirstTask                         
00041a81  vPreCheckConfigs                            
000521b5  vProcessGeneratedUDPPacket                  
00037a11  vQueueAddToRegistry                         
00037775  vQueueDelete                                
00037799  vQueueSetQueueNumber                        
00037abf  vQueueUnregisterQueue                       
000510ed  vRegisterCLICommands                        
00051f33  vReleaseNetworkBufferAndDescriptor          
0003c175  vReturnEthernetFrame                        
0004190d  vSetMultiCastIPv4MacAddress                 
000107c3  vSocketBind                                 
000108b1  vSocketClose                                
0004b345  vSocketCloseNextTime                        
00011387  vSocketWakeUpUser                           
0004f86f  vStreamBufferClear                          
0004f891  vStreamBufferMoveMid                        
0004b3cd  vTCPStateChange                             
0005177d  vTCPTimerReload                             
0005399d  vTCPWindowCreate                            
00050e15  vTCPWindowDestroy                           
000539cf  vTCPWindowInit                              
0000e599  vTaskDelay                                  
0000e451  vTaskDelete                                 
0000eb97  vTaskEndScheduler                           
0001003d  vTaskGenericNotifyGiveFromISR               
0000f615  vTaskGetInfo                                
0000f471  vTaskInternalSetTimeOutState                
0000f515  vTaskMissedYield                            
0000f14f  vTaskPlaceOnEventList                       
0000f179  vTaskPlaceOnUnorderedEventList              
0000fa31  vTaskPriorityDisinheritAfterTimeout         
0000e71d  vTaskPrioritySet                            
0000f349  vTaskRemoveFromUnorderedEventList           
0000e9a9  vTaskResume                                 
0000f53d  vTaskSetTaskNumber                          
0000f453  vTaskSetTimeOutState                        
0000eb4d  vTaskStartScheduler                         
0000e879  vTaskSuspend                                
0000ebb3  vTaskSuspendAll                             
0000f0ad  vTaskSwitchContext                          
000558c9  wcslen                                      
00043195  xARPWaitResolution                          
00051033  xApplicationGetRandomNumber                 
20026b90  xBoundTCPSocketsList                        
20026ba4  xBoundUDPSocketsList                        
0005a888  xBroadcastMACAddress                        
0005a8c0  xBufferAllocFixedSize                       
00051639  xCalculateSleepTime                         
000432a9  xCheckLoopback                              
00042cd9  xCheckRequiresARPResolution                 
20026e9c  xDefaultAddressing                          
20026e84  xDefaultPartUDPPacketHeader                 
0004eae7  xEventGroupClearBits                        
0004e905  xEventGroupCreate                           
0004eb13  xEventGroupGetBitsFromISR                   
0004eb43  xEventGroupSetBits                          
0004e925  xEventGroupSync                             
0004e9f9  xEventGroupWaitBits                         
0003c247  xIPIsNetworkTaskReady                       
00041a1d  xIsCallingFromIPTask                        
00044469  xIsDHCPSocket                               
00042c89  xIsIPInARPCache                             
0003bdaf  xIsIPv4Multicast                            
0003b8d9  xIsNetworkDownEventPending                  
20026eb0  xNetworkAddressing                          
00051d8b  xNetworkBuffersInitialise                   
20026e1c  xNetworkEventQueue                          
00048555  xNetworkInterfaceInitialise                 
000486b9  xNetworkInterfaceOutput                     
0005a8d4  xPHYProperties                              
00043a9f  xPhyCheckLinkStatus                         
00043599  xPhyConfigure                               
000433cf  xPhyDiscover                                
00043781  xPhyFixedValue                              
000437f9  xPhyStartAutoNegotiation                    
0004ee55  xPortGetFreeHeapSize                        
0004ee5b  xPortGetMinimumEverFreeHeapSize             
00054401  xPortPendSVHandler                          
0005374f  xPortStartScheduler                         
000537bd  xPortSysTickHandler                         
0004b5ed  xProcessReceivedTCPPacket                   
000522f7  xProcessReceivedUDPPacket                   
20026d18  xProcessedTCPMessage                        
0003700d  xQueueCreateCountingSemaphore               
00036f61  xQueueCreateMutex                           
00036e87  xQueueGenericCreate                         
00036db5  xQueueGenericReset                          
0003703d  xQueueGenericSend                           
0003716d  xQueueGenericSendFromISR                    
0003720f  xQueueGiveFromISR                           
00036f8d  xQueueGiveMutexRecursive                    
000379a5  xQueueIsQueueEmptyFromISR                   
000379eb  xQueueIsQueueFullFromISR                    
0003751b  xQueuePeek                                  
000376d7  xQueuePeekFromISR                           
000372a3  xQueueReceive                               
0003763d  xQueueReceiveFromISR                        
20026948  xQueueRegistry                              
000373c1  xQueueSemaphoreTake                         
00036fc9  xQueueTakeMutexRecursive                    
000418e5  xSendDHCPEvent                              
0003bbc9  xSendEventStructToIPTask                    
0003bba1  xSendEventToIPTask                          
0005397b  xSequenceGreaterThan                        
00053959  xSequenceLessThan                           
00012143  xSocketValid                                
0004f8df  xStreamBufferLessThenEqual                  
0004b87d  xTCPCheckNewClient                          
0004b369  xTCPSocketCheck                             
00011c05  xTCPTimerCheck                              
20026f7c  xTCPWindowLoggingLevel                      
00050e03  xTCPWindowRxEmpty                           
00050cd7  xTCPWindowTxDone                            
00050d19  xTCPWindowTxHasData                         
0000eea5  xTaskCatchUpTicks                           
0000f491  xTaskCheckForTimeOut                        
0000e205  xTaskCreate                                 
0000e509  xTaskDelayUntil                             
0000fcdf  xTaskGenericNotify                          
0000fe65  xTaskGenericNotifyFromISR                   
00010195  xTaskGenericNotifyStateClear                
0000fc1d  xTaskGenericNotifyWait                      
0000f80b  xTaskGetCurrentTaskHandle                   
0000ed55  xTaskGetTickCount                           
0000ed69  xTaskGetTickCountFromISR                    
0000eed5  xTaskIncrementTick                          
0000f95b  xTaskPriorityDisinherit                     
0000f845  xTaskPriorityInherit                        
0000f1e5  xTaskRemoveFromEventList                    
0000ebc9  xTaskResumeAll                              
0000ea75  xTaskResumeFromISR                          


GLOBAL SYMBOLS: SORTED BY Symbol Address 

address   name                                        
-------   ----                                        
00000000  __TI_static_base__                          
00000000  g_pfnVectors                                
00000010  __SYSMEM_SIZE                               
00000200  __STACK_SIZE                                
0000033d  lv_chart_create                             
00000355  lv_chart_set_type                           
00000417  lv_chart_set_point_count                    
000004bf  lv_chart_set_range                          
0000056d  lv_chart_set_update_mode                    
000005a7  lv_chart_set_div_line_count                 
000005f5  lv_chart_set_zoom_x                         
0000062f  lv_chart_set_zoom_y                         
00000669  lv_chart_get_zoom_x                         
0000067d  lv_chart_get_zoom_y                         
00000691  lv_chart_set_axis_tick                      
00000703  lv_chart_get_type                           
0000071b  lv_chart_get_point_count                    
0000072f  lv_chart_get_x_start_point                  
00000745  lv_chart_get_point_pos_by_id                
000009d3  lv_chart_refresh                            
000009df  lv_chart_add_series                         
00000afb  lv_chart_remove_series                      
00000b35  lv_chart_hide_series                        
00000b65  lv_chart_set_series_color                   
00000b85  lv_chart_set_x_start_point                  
00000bb5  lv_chart_get_series_next                    
00000bd9  lv_chart_add_cursor                         
00000c3d  lv_chart_set_cursor_pos                     
00000c6d  lv_chart_set_cursor_point                   
00000cb3  lv_chart_get_cursor_point                   
00000cc9  lv_chart_set_all_value                      
00000d21  lv_chart_set_next_value                     
00000d79  lv_chart_set_next_value2                    
00000de9  lv_chart_set_value_by_id                    
00000e31  lv_chart_set_value_by_id2                   
00000e93  lv_chart_set_ext_y_array                    
00000ed1  lv_chart_set_ext_x_array                    
00000f0f  lv_chart_get_y_array                        
00000f25  lv_chart_get_x_array                        
00000f3b  lv_chart_get_pressed_point                  
00003451  get_tick_gsc                                
00003497  _nop                                        
000052b5  lv_theme_default_init                       
00005385  lv_theme_default_get                        
00005395  lv_theme_default_is_inited                  
000066c7  lv_draw_mask_add                            
00006729  lv_draw_mask_apply                          
000067ab  lv_draw_mask_apply_ids                      
00006857  lv_draw_mask_remove_id                      
00006897  lv_draw_mask_remove_custom                  
000068e7  lv_draw_mask_free_param                     
00006941  _lv_draw_mask_cleanup                       
000069a1  lv_draw_mask_get_cnt                        
000069ed  lv_draw_mask_is_any                         
00006a99  lv_draw_mask_line_points_init               
00006d29  lv_draw_mask_line_angle_init                
00006d9d  lv_draw_mask_angle_init                     
00006f25  lv_draw_mask_radius_init                    
00007155  lv_draw_mask_fade_init                      
0000719b  lv_draw_mask_map_init                       
000071d1  lv_draw_mask_polygon_init                   
00009307  __aeabi_idiv0                               
00009307  __aeabi_ldiv0                               
0000937f  lv_draw_sw_rect                             
000093bb  lv_draw_sw_bg                               
0000b3ab  draw_border_generic                         
0000be81  lv_obj_set_pos                              
0000bea3  lv_obj_set_x                                
0000bee1  lv_obj_set_y                                
0000bf1f  lv_obj_refr_size                            
0000c335  lv_obj_set_size                             
0000c357  lv_obj_set_width                            
0000c395  lv_obj_set_height                           
0000c3d3  lv_obj_set_content_width                    
0000c421  lv_obj_set_content_height                   
0000c46f  lv_obj_set_layout                           
0000c489  lv_obj_is_layout_positioned                 
0000c4c1  lv_obj_mark_layout_as_dirty                 
0000c501  lv_obj_update_layout                        
0000c543  lv_layout_register                          
0000c593  lv_obj_set_align                            
0000c5a9  lv_obj_align                                
0000c5e5  lv_obj_align_to                             
0000caff  lv_obj_get_coords                           
0000cb11  lv_obj_get_x                                
0000cb77  lv_obj_get_x2                               
0000cb8f  lv_obj_get_y                                
0000cbf5  lv_obj_get_y2                               
0000cc0d  lv_obj_get_x_aligned                        
0000cc1b  lv_obj_get_y_aligned                        
0000cc29  lv_obj_get_width                            
0000cc37  lv_obj_get_height                           
0000cc45  lv_obj_get_content_width                    
0000cc8b  lv_obj_get_content_height                   
0000ccd1  lv_obj_get_content_coords                   
0000cd4d  lv_obj_get_self_width                       
0000cd67  lv_obj_get_self_height                      
0000cd81  lv_obj_refresh_self_size                    
0000cdcd  lv_obj_refr_pos                             
0000d1c3  lv_obj_move_to                              
0000d389  lv_obj_move_children_by                     
0000d42b  lv_obj_transform_point                      
0000d4c9  lv_obj_get_transformed_area                 
0000d6f1  lv_obj_invalidate_area                      
0000d72d  lv_obj_invalidate                           
0000d78d  lv_obj_area_is_visible                      
0000d8c3  lv_obj_is_visible                           
0000d923  lv_obj_set_ext_click_area                   
0000d93d  lv_obj_get_click_area                       
0000d99d  lv_obj_hit_test                             
0000da11  lv_clamp_width                              
0000db25  lv_clamp_height                             
0000e205  xTaskCreate                                 
0000e451  vTaskDelete                                 
0000e509  xTaskDelayUntil                             
0000e599  vTaskDelay                                  
0000e5e9  eTaskGetState                               
0000e6ab  uxTaskPriorityGet                           
0000e6d5  uxTaskPriorityGetFromISR                    
0000e71d  vTaskPrioritySet                            
0000e879  vTaskSuspend                                
0000e9a9  vTaskResume                                 
0000ea75  xTaskResumeFromISR                          
0000eb4d  vTaskStartScheduler                         
0000eb97  vTaskEndScheduler                           
0000ebb3  vTaskSuspendAll                             
0000ebc9  xTaskResumeAll                              
0000ed55  xTaskGetTickCount                           
0000ed69  xTaskGetTickCountFromISR                    
0000ed81  uxTaskGetNumberOfTasks                      
0000ed91  pcTaskGetName                               
0000edcd  uxTaskGetSystemState                        
0000eea5  xTaskCatchUpTicks                           
0000eed5  xTaskIncrementTick                          
0000f0ad  vTaskSwitchContext                          
0000f14f  vTaskPlaceOnEventList                       
0000f179  vTaskPlaceOnUnorderedEventList              
0000f1e5  xTaskRemoveFromEventList                    
0000f349  vTaskRemoveFromUnorderedEventList           
0000f453  vTaskSetTimeOutState                        
0000f471  vTaskInternalSetTimeOutState                
0000f491  xTaskCheckForTimeOut                        
0000f515  vTaskMissedYield                            
0000f51d  uxTaskGetTaskNumber                         
0000f53d  vTaskSetTaskNumber                          
0000f615  vTaskGetInfo                                
0000f7a5  uxTaskGetStackHighWaterMark                 
0000f80b  xTaskGetCurrentTaskHandle                   
0000f845  xTaskPriorityInherit                        
0000f95b  xTaskPriorityDisinherit                     
0000fa31  vTaskPriorityDisinheritAfterTimeout         
0000fb35  uxTaskResetEventItemValue                   
0000fb57  pvTaskIncrementMutexHeldCount               
0000fb79  ulTaskGenericNotifyTake                     
0000fc1d  xTaskGenericNotifyWait                      
0000fcdf  xTaskGenericNotify                          
0000fe65  xTaskGenericNotifyFromISR                   
0001003d  vTaskGenericNotifyGiveFromISR               
00010195  xTaskGenericNotifyStateClear                
000101e5  ulTaskGenericNotifyValueClear               
00010373  vNetworkSocketsInit                         
000103e1  FreeRTOS_socket                             
000104f1  FreeRTOS_recvfrom                           
00010637  FreeRTOS_sendto                             
00010729  FreeRTOS_bind                               
000107c3  vSocketBind                                 
00010869  FreeRTOS_closesocket                        
000108b1  vSocketClose                                
00010a85  FreeRTOS_setsockopt                         
00010e53  pxUDPSocketLookup                           
00010e73  FreeRTOS_inet_ntoa                          
00010f4b  FreeRTOS_inet_pton                          
00010f7b  FreeRTOS_inet_ntop                          
00010fad  FreeRTOS_inet_ntop4                         
0001108b  FreeRTOS_EUI48_ntop                         
00011161  FreeRTOS_EUI48_pton                         
00011219  FreeRTOS_inet_pton4                         
00011341  FreeRTOS_inet_addr                          
0001135b  FreeRTOS_GetLocalAddress                    
00011387  vSocketWakeUpUser                           
000114f5  FreeRTOS_connect                            
00011585  FreeRTOS_accept                             
000116db  FreeRTOS_recv                               
00011931  FreeRTOS_get_tx_head                        
000119a3  FreeRTOS_send                               
00011aeb  FreeRTOS_listen                             
00011bab  FreeRTOS_shutdown                           
00011c05  xTCPTimerCheck                              
00011ccd  pxTCPSocketLookup                           
00011d4d  FreeRTOS_get_rx_buf                         
00011e85  lTCPAddRxdata                               
00011f2d  FreeRTOS_GetRemoteAddress                   
00011f8f  FreeRTOS_maywrite                           
00011ff7  FreeRTOS_tx_space                           
0001203d  FreeRTOS_tx_size                            
00012075  FreeRTOS_issocketconnected                  
000120b3  FreeRTOS_mss                                
000120e1  FreeRTOS_connstatus                         
0001210b  FreeRTOS_rx_size                            
00012143  xSocketValid                                
00012163  FreeRTOS_netstat                            
00012307  lv_obj_set_scrollbar_mode                   
00012343  lv_obj_set_scroll_dir                       
00012379  lv_obj_set_scroll_snap_x                    
0001239d  lv_obj_set_scroll_snap_y                    
000123c1  lv_obj_get_scrollbar_mode                   
000123df  lv_obj_get_scroll_dir                       
000123fd  lv_obj_get_scroll_snap_x                    
0001241b  lv_obj_get_scroll_snap_y                    
00012439  lv_obj_get_scroll_x                         
00012459  lv_obj_get_scroll_y                         
00012479  lv_obj_get_scroll_top                       
00012499  lv_obj_get_scroll_bottom                    
000125a1  lv_obj_get_scroll_left                      
000126e7  lv_obj_get_scroll_right                     
00012817  lv_obj_get_scroll_end                       
0001285f  lv_obj_scroll_by_bounded                    
000129f5  lv_obj_scroll_by                            
00012bbf  lv_obj_scroll_to                            
00012bed  lv_obj_scroll_to_x                          
00012c2b  lv_obj_scroll_to_y                          
00012c69  lv_obj_scroll_to_view                       
00012c8f  lv_obj_scroll_to_view_recursive             
00012ce1  _lv_obj_scroll_by_raw                       
00012d59  lv_obj_is_scrolling                         
00012d91  lv_obj_update_snap                          
00012dcd  lv_obj_get_scrollbar_area                   
000137c1  lv_obj_scrollbar_invalidate                 
00013807  lv_obj_readjust_scroll                      
00013f5b  lv_btnmatrix_create                         
00013f73  lv_btnmatrix_set_map                        
00014229  lv_btnmatrix_set_ctrl_map                   
00014255  lv_btnmatrix_set_selected_btn               
00014297  lv_btnmatrix_set_btn_ctrl                   
000142fb  lv_btnmatrix_clear_btn_ctrl                 
00014347  lv_btnmatrix_set_btn_ctrl_all               
00014381  lv_btnmatrix_clear_btn_ctrl_all             
000143bb  lv_btnmatrix_set_btn_width                  
0001440d  lv_btnmatrix_set_one_checked                
00014437  lv_btnmatrix_get_map                        
00014449  lv_btnmatrix_get_selected_btn               
0001445b  lv_btnmatrix_get_btn_text                   
000144f7  lv_btnmatrix_has_btn_ctrl                   
00014543  lv_btnmatrix_get_one_checked                
00015cc7  lv_label_create                             
00015cdf  lv_label_set_text                           
00015d93  lv_label_set_text_fmt                       
00015e0f  lv_label_set_text_static                    
00015e59  lv_label_set_long_mode                      
00015ef5  lv_label_set_recolor                        
00015f37  lv_label_set_text_selection_start           
00015f55  lv_label_set_text_selection_end             
00015f6d  lv_label_get_text                           
00015f7f  lv_label_get_long_mode                      
00015f97  lv_label_get_recolor                        
00015fc9  lv_label_get_letter_pos                     
000161e1  lv_label_get_letter_on                      
0001643d  lv_label_is_char_under_pos                  
000166ad  lv_label_get_text_selection_start           
000166bf  lv_label_get_text_selection_end             
000166d5  lv_label_ins_text                           
00016765  lv_label_cut_text                           
00017d8d  lv_draw_sw_blend                            
00017de1  lv_draw_sw_blend_basic                      
00019541  lv_textarea_create                          
00019559  lv_textarea_add_char                        
0001966b  lv_textarea_add_text                        
00019799  lv_textarea_del_char                        
0001986f  lv_textarea_del_char_forward                
00019899  lv_textarea_set_text                        
000199a9  lv_textarea_set_placeholder_text            
00019a21  lv_textarea_set_cursor_pos                  
00019b67  lv_textarea_set_cursor_click_pos            
00019b99  lv_textarea_set_password_mode               
00019c4b  lv_textarea_set_password_bullet             
00019cc1  lv_textarea_set_one_line                    
00019d6f  lv_textarea_set_accepted_chars              
00019d85  lv_textarea_set_max_length                  
00019d9b  lv_textarea_set_insert_replace              
00019dad  lv_textarea_set_text_selection              
00019ddb  lv_textarea_set_password_show_time          
00019df5  lv_textarea_set_align                       
00019e55  lv_textarea_get_text                        
00019e7f  lv_textarea_get_placeholder_text            
00019e9b  lv_textarea_get_label                       
00019ead  lv_textarea_get_cursor_pos                  
00019ebf  lv_textarea_get_cursor_click_pos            
00019ee7  lv_textarea_get_password_mode               
00019f0d  lv_textarea_get_password_bullet             
00019f49  lv_textarea_get_one_line                    
00019f6f  lv_textarea_get_accepted_chars              
00019f81  lv_textarea_get_max_length                  
00019f93  lv_textarea_text_is_selected                
00019fc3  lv_textarea_get_text_selection              
00019fe3  lv_textarea_get_password_show_time          
00019ff5  lv_textarea_get_current_char                
0001a03d  lv_textarea_clear_selection                 
0001a07f  lv_textarea_cursor_right                    
0001a09b  lv_textarea_cursor_left                     
0001a0c1  lv_textarea_cursor_down                     
0001a15b  lv_textarea_cursor_up                       
0001b0b5  lv_table_create                             
0001b0cd  lv_table_set_cell_value                     
0001b1bf  lv_table_set_cell_value_fmt                 
0001b2ed  lv_table_set_row_cnt                        
0001b3f9  lv_table_set_col_cnt                        
0001b561  lv_table_set_col_width                      
0001b5a5  lv_table_add_cell_ctrl                      
0001b671  lv_table_clear_cell_ctrl                    
0001b73d  lv_table_get_cell_value                     
0001b7a3  lv_table_get_row_cnt                        
0001b7b5  lv_table_get_col_cnt                        
0001b7c7  lv_table_get_col_width                      
0001b7f5  lv_table_has_cell_ctrl                      
0001b877  lv_table_get_selected_cell                  
0001cd61  _lv_obj_style_init                          
0001cd71  lv_obj_add_style                            
0001ce91  lv_obj_remove_style                         
0001d04d  lv_obj_report_style_change                  
0001d099  lv_obj_refresh_style                        
0001d20f  lv_obj_enable_style_refresh                 
0001d229  lv_obj_get_style_prop                       
0001d317  lv_obj_set_local_style_prop                 
0001d34d  lv_obj_set_local_style_prop_meta            
0001d387  lv_obj_get_local_style_prop                 
0001d3f3  lv_obj_remove_local_style_prop              
0001d491  _lv_obj_style_create_transition             
0001d669  _lv_obj_style_apply_color_filter            
0001d6d1  _lv_obj_style_state_compare                 
0001da13  lv_obj_fade_in                              
0001da61  lv_obj_fade_out                             
0001daaf  lv_obj_style_get_selector_state             
0001dac1  lv_obj_style_get_selector_part              
0001dad1  lv_obj_calculate_style_text_align           
0001e61b  _lv_refr_init                               
0001e61d  lv_refr_now                                 
0001e663  lv_obj_redraw                               
0001e797  _lv_inv_area                                
0001e8f3  _lv_refr_get_disp_refreshing                
0001e8f9  _lv_refr_set_disp_refreshing                
0001e909  _lv_disp_refr_timer                         
0001fead  lv_indev_read_timer_cb                      
0001ffd3  lv_indev_enable                             
0002002d  lv_indev_get_act                            
00020033  lv_indev_get_type                           
0002004b  lv_indev_reset                              
00020145  lv_indev_reset_long_press                   
00020169  lv_indev_set_cursor                         
000201bf  lv_indev_set_group                          
000201e5  lv_indev_set_button_points                  
00020201  lv_indev_get_point                          
00020255  lv_indev_get_gesture_dir                    
00020269  lv_indev_get_key                            
00020285  lv_indev_get_scroll_dir                     
000202b9  lv_indev_get_scroll_obj                     
000202e7  lv_indev_get_vect                           
00020327  lv_indev_wait_release                       
0002033f  lv_indev_get_obj_act                        
00020345  lv_indev_get_read_timer                     
0002035d  lv_indev_search_obj                         
000217d7  lv_dropdown_create                          
000217ef  lv_dropdown_set_text                        
00021811  lv_dropdown_set_options                     
000218d9  lv_dropdown_set_options_static              
00021981  lv_dropdown_add_option                      
00021b17  lv_dropdown_clear_options                   
00021b69  lv_dropdown_set_selected                    
00021bad  lv_dropdown_set_dir                         
00021be7  lv_dropdown_set_symbol                      
00021bff  lv_dropdown_set_selected_highlight          
00021c2f  lv_dropdown_get_list                        
00021c41  lv_dropdown_get_text                        
00021c53  lv_dropdown_get_options                     
00021c6f  lv_dropdown_get_selected                    
00021c81  lv_dropdown_get_option_cnt                  
00021c9d  lv_dropdown_get_selected_str                
00021d49  lv_dropdown_get_option_index                
00021ddb  lv_dropdown_get_symbol                      
00021ded  lv_dropdown_get_selected_highlight          
00021e0d  lv_dropdown_get_dir                         
00021e27  lv_dropdown_open                            
00022153  lv_dropdown_close                           
00022181  lv_dropdown_is_open                         
00022f99  lv_arc_create                               
00022fb1  lv_arc_set_start_angle                      
000230a1  lv_arc_set_end_angle                        
00023191  lv_arc_set_angles                           
000231b3  lv_arc_set_bg_start_angle                   
0002329d  lv_arc_set_bg_end_angle                     
00023383  lv_arc_set_bg_angles                        
000233a5  lv_arc_set_rotation                         
000233c1  lv_arc_set_mode                             
0002347b  lv_arc_set_value                            
000234ef  lv_arc_set_range                            
0002355f  lv_arc_set_change_rate                      
00023579  lv_arc_set_knob_offset                      
00023593  lv_arc_get_angle_start                      
000235a1  lv_arc_get_angle_end                        
000235af  lv_arc_get_bg_angle_start                   
000235bd  lv_arc_get_bg_angle_end                     
000235cb  lv_arc_get_value                            
000235db  lv_arc_get_min_value                        
000235eb  lv_arc_get_max_value                        
000235fb  lv_arc_get_mode                             
0002360f  lv_arc_get_rotation                         
0002361f  lv_arc_get_knob_offset                      
0002362f  lv_arc_align_obj_to_angle                   
000236df  lv_arc_rotate_obj_to_angle                  
00024ab3  lv_is_initialized                           
00024abd  lv_init                                     
00024b5b  lv_deinit                                   
00024b73  lv_obj_create                               
00024b8b  lv_obj_add_flag                             
00024c0b  lv_obj_clear_flag                           
00024c91  lv_obj_add_state                            
00024ccf  lv_obj_clear_state                          
00024cfd  lv_obj_has_flag                             
00024d23  lv_obj_has_flag_any                         
00024d45  lv_obj_get_state                            
00024d53  lv_obj_has_state                            
00024d7d  lv_obj_get_group                            
00024da9  lv_obj_allocate_spec_attr                   
00024df7  lv_obj_check_type                           
00024e25  lv_obj_has_class                            
00024e55  lv_obj_get_class                            
00024e63  lv_obj_is_valid                             
00026c5b  lv_tlsf_check                               
00026e1b  lv_tlsf_walk_pool                           
00026e89  lv_tlsf_block_size                          
00026ea9  lv_tlsf_check_pool                          
00026ec3  lv_tlsf_size                                
00026ec9  lv_tlsf_align_size                          
00026ecd  lv_tlsf_block_size_min                      
00026ed1  lv_tlsf_block_size_max                      
00026ed7  lv_tlsf_pool_overhead                       
00026edb  lv_tlsf_alloc_overhead                      
00026edf  lv_tlsf_add_pool                            
00026f6f  lv_tlsf_remove_pool                         
00026fd5  lv_tlsf_create                              
00026ff7  lv_tlsf_create_with_pool                    
00027021  lv_tlsf_destroy                             
0002702b  lv_tlsf_get_pool                            
0002703b  lv_tlsf_malloc                              
00027075  lv_tlsf_memalign                            
00027145  lv_tlsf_free                                
0002719b  lv_tlsf_realloc                             
0002758f  lv_grid_init                                
00027603  lv_obj_set_grid_dsc_array                   
0002762d  lv_obj_set_grid_align                       
00027659  lv_obj_set_grid_cell                        
000276bd  lv_style_set_grid_row_dsc_array             
000276d9  lv_style_set_grid_column_dsc_array          
000276f5  lv_style_set_grid_row_align                 
00027715  lv_style_set_grid_column_align              
00027735  lv_style_set_grid_cell_column_pos           
00027759  lv_style_set_grid_cell_column_span          
00027779  lv_style_set_grid_cell_row_pos              
00027799  lv_style_set_grid_cell_row_span             
000277b5  lv_style_set_grid_cell_x_align              
000277d1  lv_style_set_grid_cell_y_align              
000277ed  lv_obj_set_style_grid_row_dsc_array         
0002780f  lv_obj_set_style_grid_column_dsc_array      
00027831  lv_obj_set_style_grid_row_align             
00027861  lv_obj_set_style_grid_column_align          
00027887  lv_obj_set_style_grid_cell_column_pos       
000278ad  lv_obj_set_style_grid_cell_column_span      
000278d3  lv_obj_set_style_grid_cell_row_pos          
000278f9  lv_obj_set_style_grid_cell_row_span         
0002791f  lv_obj_set_style_grid_cell_x_align          
00027945  lv_obj_set_style_grid_cell_y_align          
000289a7  lv_flex_init                                
000289df  lv_obj_set_flex_flow                        
00028a01  lv_obj_set_flex_align                       
00028a43  lv_obj_set_flex_grow                        
00028a63  lv_style_set_flex_flow                      
00028a7f  lv_style_set_flex_main_place                
00028a9b  lv_style_set_flex_cross_place               
00028ab7  lv_style_set_flex_track_place               
00028ad3  lv_style_set_flex_grow                      
00028aef  lv_obj_set_style_flex_flow                  
00028b15  lv_obj_set_style_flex_main_place            
00028b3b  lv_obj_set_style_flex_cross_place           
00028b61  lv_obj_set_style_flex_track_place           
00028b87  lv_obj_set_style_flex_grow                  
00029be1  lv_meter_create                             
00029bf9  lv_meter_add_scale                          
00029c5f  lv_meter_set_scale_ticks                    
00029c95  lv_meter_set_scale_major_ticks              
00029cd1  lv_meter_set_scale_range                    
00029cff  lv_meter_add_needle_line                    
00029d63  lv_meter_add_needle_img                     
00029dc9  lv_meter_add_arc                            
00029e31  lv_meter_add_scale_lines                    
00029ea3  lv_meter_set_indicator_value                
00029f21  lv_meter_set_indicator_start_value          
00029f7d  lv_meter_set_indicator_end_value            
0002aefb  lv_img_create                               
0002af13  lv_img_set_src                              
0002b113  lv_img_set_offset_x                         
0002b145  lv_img_set_offset_y                         
0002b17d  lv_img_set_angle                            
0002b2d5  lv_img_set_pivot                            
0002b423  lv_img_set_zoom                             
0002b575  lv_img_set_antialias                        
0002b5af  lv_img_set_size_mode                        
0002b5e9  lv_img_get_src                              
0002b5fb  lv_img_get_offset_x                         
0002b60f  lv_img_get_offset_y                         
0002b623  lv_img_get_angle                            
0002b635  lv_img_get_pivot                            
0002b64f  lv_img_get_zoom                             
0002b661  lv_img_get_antialias                        
0002b689  lv_img_get_size_mode                        
0002c0d1  _lv_indev_scroll_handler                    
0002c265  _lv_indev_scroll_throw_handler              
0002c591  lv_indev_scroll_throw_predict               
0002c615  lv_indev_scroll_get_snap_dist               
0002d30f  lv_draw_sw_arc                              
0002e61b  lv_roller_create                            
0002e633  lv_roller_set_options                       
0002e7fd  lv_roller_set_selected                      
0002e8e9  lv_roller_set_visible_row_count             
0002e93d  lv_roller_get_selected                      
0002e97f  lv_roller_get_selected_str                  
0002ea2b  lv_roller_get_options                       
0002ea3b  lv_roller_get_option_cnt                    
0002f87d  lv_colorwheel_create                        
0002f8a1  lv_colorwheel_set_hsv                       
0002f927  lv_colorwheel_set_rgb                       
0002f953  lv_colorwheel_set_mode                      
0002f981  lv_colorwheel_set_mode_fixed                
0002f9a7  lv_colorwheel_get_hsv                       
0002f9b9  lv_colorwheel_get_rgb                       
0002f9d7  lv_colorwheel_get_color_mode                
0002f9ef  lv_colorwheel_get_color_mode_fixed          
00030a67  lv_bar_create                               
00030a7f  lv_bar_set_value                            
00030b07  lv_bar_set_start_value                      
00030b93  lv_bar_set_range                            
00030c1d  lv_bar_set_mode                             
00030c5b  lv_bar_get_value                            
00030c7d  lv_bar_get_start_value                      
00030cb3  lv_bar_get_min_value                        
00030cc5  lv_bar_get_max_value                        
00030cd7  lv_bar_get_mode                             
0003188d  lv_img_buf_get_px_color                     
00031ad5  lv_img_buf_get_px_alpha                     
00031ca7  lv_img_buf_set_px_alpha                     
00031edd  lv_img_buf_set_px_color                     
0003215f  lv_img_buf_set_palette                      
000321df  lv_img_buf_alloc                            
00032293  lv_img_buf_free                             
000322b1  lv_img_buf_get_img_size                     
000323f5  _lv_img_buf_get_transformed_area            
00032bdf  lv_obj_init_draw_rect_dsc                   
00032f07  lv_obj_init_draw_label_dsc                  
00032fcd  lv_obj_init_draw_img_dsc                    
00033095  lv_obj_init_draw_line_dsc                   
00033173  lv_obj_init_draw_arc_dsc                    
0003322b  lv_obj_calculate_ext_draw_size              
000333c1  lv_obj_draw_dsc_init                        
000333d7  lv_obj_draw_part_check_type                 
000333ff  lv_obj_refresh_ext_draw_size                
0003346d  _lv_obj_get_ext_draw_size                   
00033489  _lv_obj_get_layer_type                      
00033607  lv_slider_create                            
0003361f  lv_slider_is_dragged                        
00034369  _lv_img_decoder_init                        
000343a5  lv_img_decoder_get_info                     
00034427  lv_img_decoder_open                         
00034569  lv_img_decoder_read_line                    
000345b9  lv_img_decoder_close                        
00034605  lv_img_decoder_create                       
0003462d  lv_img_decoder_delete                       
00034641  lv_img_decoder_set_info_cb                  
00034653  lv_img_decoder_set_open_cb                  
00034665  lv_img_decoder_set_read_line_cb             
00034677  lv_img_decoder_set_close_cb                 
00034689  lv_img_decoder_built_in_info                
000347c1  lv_img_decoder_built_in_open                
00034a3f  lv_img_decoder_built_in_read_line           
00034b45  lv_img_decoder_built_in_close               
000351fd  lv_draw_sw_transform                        
00035fd1  lv_area_set                                 
00036005  lv_area_set_width                           
00036025  lv_area_set_height                          
00036045  _lv_area_set_pos                            
0003608b  lv_area_get_size                            
000360bb  lv_area_increase                            
00036105  lv_area_move                                
0003614f  _lv_area_intersect                          
00036215  _lv_area_join                               
000362ab  _lv_area_is_point_on                        
000364af  _lv_area_is_on                              
00036501  _lv_area_is_in                              
000365fd  _lv_area_is_out                             
000366e7  _lv_area_is_equal                           
00036739  lv_area_align                               
00036b2d  lv_point_transform                          
00036db5  xQueueGenericReset                          
00036e87  xQueueGenericCreate                         
00036f61  xQueueCreateMutex                           
00036f8d  xQueueGiveMutexRecursive                    
00036fc9  xQueueTakeMutexRecursive                    
0003700d  xQueueCreateCountingSemaphore               
0003703d  xQueueGenericSend                           
0003716d  xQueueGenericSendFromISR                    
0003720f  xQueueGiveFromISR                           
000372a3  xQueueReceive                               
000373c1  xQueueSemaphoreTake                         
0003751b  xQueuePeek                                  
0003763d  xQueueReceiveFromISR                        
000376d7  xQueuePeekFromISR                           
00037729  uxQueueMessagesWaiting                      
0003773f  uxQueueSpacesAvailable                      
0003775f  uxQueueMessagesWaitingFromISR               
00037775  vQueueDelete                                
0003778b  uxQueueGetQueueNumber                       
00037799  vQueueSetQueueNumber                        
000377ab  ucQueueGetQueueType                         
000379a5  xQueueIsQueueEmptyFromISR                   
000379eb  xQueueIsQueueFullFromISR                    
00037a11  vQueueAddToRegistry                         
00037a7f  pcQueueGetName                              
00037abf  vQueueUnregisterQueue                       
00037b7b  lv_txt_get_size                             
00037e65  _lv_txt_get_next_line                       
00037fe3  lv_txt_get_width                            
000380a1  _lv_txt_is_cmd                              
00038113  _lv_txt_ins                                 
00038191  _lv_txt_cut                                 
000381fd  _lv_txt_set_text_vfmt                       
00038251  _lv_txt_encoded_letter_next_2               
00039317  lv_snprintf_builtin                         
0003934b  lv_vsnprintf_builtin                        
0003939f  lv_draw_sw_line                             
00039f8d  lv_menu_create                              
00039fa5  lv_menu_page_create                         
00039fdf  lv_menu_cont_create                         
00039ff7  lv_menu_section_create                      
0003a00f  lv_menu_separator_create                    
0003a075  lv_menu_set_page                            
0003a1e1  lv_menu_set_sidebar_page                    
0003a345  lv_menu_set_mode_header                     
0003a38f  lv_menu_set_mode_root_back_btn              
0003a3c9  lv_menu_set_load_page_event                 
0003a43b  lv_menu_set_page_title                      
0003a4ad  lv_menu_set_page_title_static               
0003a4fd  lv_menu_get_cur_main_page                   
0003a50f  lv_menu_get_cur_sidebar_page                
0003a521  lv_menu_get_main_header                     
0003a533  lv_menu_get_main_header_back_btn            
0003a549  lv_menu_get_sidebar_header                  
0003a55b  lv_menu_get_sidebar_header_back_btn         
0003a571  lv_menu_back_btn_is_root                    
0003a5a5  lv_menu_clear_history                       
0003ab8f  lv_obj_set_style_width                      
0003abb3  lv_obj_set_style_min_width                  
0003abd7  lv_obj_set_style_max_width                  
0003abfb  lv_obj_set_style_height                     
0003ac1f  lv_obj_set_style_min_height                 
0003ac43  lv_obj_set_style_max_height                 
0003ac67  lv_obj_set_style_x                          
0003ac8b  lv_obj_set_style_y                          
0003acaf  lv_obj_set_style_align                      
0003acd3  lv_obj_set_style_transform_width            
0003acf7  lv_obj_set_style_transform_height           
0003ad1b  lv_obj_set_style_translate_x                
0003ad3f  lv_obj_set_style_translate_y                
0003ad63  lv_obj_set_style_transform_zoom             
0003ad87  lv_obj_set_style_transform_angle            
0003adab  lv_obj_set_style_transform_pivot_x          
0003adcf  lv_obj_set_style_transform_pivot_y          
0003adf3  lv_obj_set_style_pad_top                    
0003ae17  lv_obj_set_style_pad_bottom                 
0003ae3b  lv_obj_set_style_pad_left                   
0003ae5f  lv_obj_set_style_pad_right                  
0003ae83  lv_obj_set_style_pad_row                    
0003aea7  lv_obj_set_style_pad_column                 
0003aecb  lv_obj_set_style_bg_color                   
0003aef1  lv_obj_set_style_bg_opa                     
0003af15  lv_obj_set_style_bg_grad_color              
0003af3b  lv_obj_set_style_bg_grad_dir                
0003af5f  lv_obj_set_style_bg_main_stop               
0003af83  lv_obj_set_style_bg_grad_stop               
0003afa7  lv_obj_set_style_bg_grad                    
0003afc7  lv_obj_set_style_bg_dither_mode             
0003afeb  lv_obj_set_style_bg_img_src                 
0003b00b  lv_obj_set_style_bg_img_opa                 
0003b02f  lv_obj_set_style_bg_img_recolor             
0003b055  lv_obj_set_style_bg_img_recolor_opa         
0003b079  lv_obj_set_style_bg_img_tiled               
0003b09d  lv_obj_set_style_border_color               
0003b0c3  lv_obj_set_style_border_opa                 
0003b0e7  lv_obj_set_style_border_width               
0003b10b  lv_obj_set_style_border_side                
0003b12f  lv_obj_set_style_border_post                
0003b153  lv_obj_set_style_outline_width              
0003b177  lv_obj_set_style_outline_color              
0003b19d  lv_obj_set_style_outline_opa                
0003b1c1  lv_obj_set_style_outline_pad                
0003b1e5  lv_obj_set_style_shadow_width               
0003b209  lv_obj_set_style_shadow_ofs_x               
0003b22d  lv_obj_set_style_shadow_ofs_y               
0003b251  lv_obj_set_style_shadow_spread              
0003b275  lv_obj_set_style_shadow_color               
0003b29b  lv_obj_set_style_shadow_opa                 
0003b2bf  lv_obj_set_style_img_opa                    
0003b2e3  lv_obj_set_style_img_recolor                
0003b309  lv_obj_set_style_img_recolor_opa            
0003b32d  lv_obj_set_style_line_width                 
0003b351  lv_obj_set_style_line_dash_width            
0003b375  lv_obj_set_style_line_dash_gap              
0003b399  lv_obj_set_style_line_rounded               
0003b3bd  lv_obj_set_style_line_color                 
0003b3e3  lv_obj_set_style_line_opa                   
0003b407  lv_obj_set_style_arc_width                  
0003b42b  lv_obj_set_style_arc_rounded                
0003b44f  lv_obj_set_style_arc_color                  
0003b475  lv_obj_set_style_arc_opa                    
0003b499  lv_obj_set_style_arc_img_src                
0003b4b9  lv_obj_set_style_text_color                 
0003b4df  lv_obj_set_style_text_opa                   
0003b503  lv_obj_set_style_text_font                  
0003b523  lv_obj_set_style_text_letter_space          
0003b547  lv_obj_set_style_text_line_space            
0003b56b  lv_obj_set_style_text_decor                 
0003b58f  lv_obj_set_style_text_align                 
0003b5b3  lv_obj_set_style_radius                     
0003b5d7  lv_obj_set_style_clip_corner                
0003b5fb  lv_obj_set_style_opa                        
0003b61f  lv_obj_set_style_color_filter_dsc           
0003b63f  lv_obj_set_style_color_filter_opa           
0003b663  lv_obj_set_style_anim                       
0003b683  lv_obj_set_style_anim_time                  
0003b6a3  lv_obj_set_style_anim_speed                 
0003b6c3  lv_obj_set_style_transition                 
0003b6e3  lv_obj_set_style_blend_mode                 
0003b707  lv_obj_set_style_layout                     
0003b72b  lv_obj_set_style_base_dir                   
0003b8bb  FreeRTOS_GetIPTaskHandle                    
0003b8c1  vIPNetworkUpCalls                           
0003b8d9  xIsNetworkDownEventPending                  
0003b8eb  FreeRTOS_NetworkDown                        
0003b90d  FreeRTOS_NetworkDownFromISR                 
0003b937  FreeRTOS_GetUDPPayloadBuffer                
0003b985  FreeRTOS_IPInit                             
0003baaf  FreeRTOS_GetAddressConfiguration            
0003baef  FreeRTOS_SetAddressConfiguration            
0003bb35  FreeRTOS_ReleaseUDPPayloadBuffer            
0003bb4d  FreeRTOS_ReleaseTCPPayloadBuffer            
0003bba1  xSendEventToIPTask                          
0003bbc9  xSendEventStructToIPTask                    
0003bc55  eConsiderFrameForProcessing                 
0003bdaf  xIsIPv4Multicast                            
0003c175  vReturnEthernetFrame                        
0003c1e5  FreeRTOS_GetIPAddress                       
0003c1eb  FreeRTOS_SetIPAddress                       
0003c1fb  FreeRTOS_GetGatewayAddress                  
0003c201  FreeRTOS_GetDNSServerAddress                
0003c207  FreeRTOS_GetNetmask                         
0003c20d  FreeRTOS_UpdateMACAddress                   
0003c223  FreeRTOS_GetMACAddress                      
0003c227  FreeRTOS_SetNetmask                         
0003c237  FreeRTOS_SetGatewayAddress                  
0003c247  xIPIsNetworkTaskReady                       
0003c24d  FreeRTOS_IsNetworkUp                        
0003c29b  prvTCPSendPacket                            
0003c335  prvTCPSendRepeated                          
0003c391  prvTCPReturnPacket                          
0003c699  prvTCPCreateWindow                          
0003c885  prvSetSynAckOptions                         
0003c8cd  prvTCPBufferResize                          
0003c985  prvTCPPrepareSend                           
0003cb71  prvTCPAddTxData                             
0003cbb7  prvSetOptions                               
0003cc3d  prvSendData                                 
0003cce5  prvTCPSendChallengeAck                      
0003ccf3  prvTCPSendReset                             
0003cd05  __TI_printfi                                
0003d755  prvTCPSocketIsActive                        
0003d7b3  prvTCPStatusAgeCheck                        
0003dd07  prvTCPHandleState                           
0003df29  prvHandleListen                             
0003e165  lv_event_send                               
0003e1db  lv_obj_event_base                           
0003e24d  lv_event_get_target                         
0003e25b  lv_event_get_current_target                 
0003e269  lv_event_get_code                           
0003e27b  lv_event_get_param                          
0003e289  lv_event_get_user_data                      
0003e297  lv_event_stop_bubbling                      
0003e2ab  lv_event_stop_processing                    
0003e2bf  lv_event_register_id                        
0003e2cd  _lv_event_mark_deleted                      
0003e30b  lv_obj_add_event_cb                         
0003e3dd  lv_obj_remove_event_cb                      
0003e4b5  lv_obj_remove_event_cb_with_user_data       
0003e5a9  lv_obj_remove_event_dsc                     
0003e679  lv_obj_get_event_user_data                  
0003e6db  lv_event_get_indev                          
0003e76b  lv_event_get_draw_part_dsc                  
0003e78b  lv_event_get_draw_ctx                       
0003e7cb  lv_event_get_old_size                       
0003e7e3  lv_event_get_key                            
0003e80b  lv_event_get_scroll_anim                    
0003e823  lv_event_set_ext_draw_size                  
0003e85d  lv_event_get_self_size_info                 
0003e875  lv_event_get_hit_test_info                  
0003e88d  lv_event_get_cover_area                     
0003e8ad  lv_event_set_cover_res                      
0003eb77  _lv_fs_init                                 
0003eb83  lv_fs_is_ready                              
0003ebb1  lv_fs_open                                  
0003ec73  lv_fs_close                                 
0003ef13  lv_fs_read                                  
0003ef8f  lv_fs_write                                 
0003eff1  lv_fs_seek                                  
0003f139  lv_fs_tell                                  
0003f199  lv_fs_dir_open                              
0003f21d  lv_fs_dir_read                              
0003f269  lv_fs_dir_close                             
0003f2af  lv_fs_drv_init                              
0003f2bd  lv_fs_drv_register                          
0003f2db  lv_fs_get_drv                               
0003f315  lv_fs_get_letters                           
0003f361  lv_fs_get_ext                               
0003f3ad  lv_fs_up                                    
0003f42f  lv_fs_get_last                              
0003f59d  lv_disp_get_scr_act                         
0003f5b9  lv_disp_get_scr_prev                        
0003f5d5  lv_disp_load_scr                            
0003f5eb  lv_disp_get_layer_top                       
0003f607  lv_disp_get_layer_sys                       
0003f623  lv_disp_set_theme                           
0003f675  lv_disp_get_theme                           
0003f689  lv_disp_set_bg_color                        
0003f6d9  lv_disp_set_bg_image                        
0003f725  lv_disp_set_bg_opa                          
0003f777  lv_disp_get_chroma_key_color                
0003f79b  lv_scr_load_anim                            
0003fb43  lv_disp_get_inactive_time                   
0003fb9d  lv_disp_trig_activity                       
0003fbc5  lv_disp_clean_dcache                        
0003fbf5  lv_disp_enable_invalidation                 
0003fc2d  lv_disp_is_invalidation_enabled             
0003fc5b  _lv_disp_get_refr_timer                     
0003fdf5  _lv_group_init                              
0003fe01  lv_group_create                             
0003fe65  lv_group_del                                
0003ff0d  lv_group_set_default                        
0003ff1d  lv_group_get_default                        
0003ff23  lv_group_add_obj                            
0003ffcb  lv_group_swap_obj                           
00040061  lv_group_remove_obj                         
00040131  lv_group_remove_all_objs                    
00040195  lv_group_focus_obj                          
00040271  lv_group_focus_next                         
0004029d  lv_group_focus_prev                         
000402c9  lv_group_focus_freeze                       
000402f3  lv_group_send_data                          
00040323  lv_group_set_focus_cb                       
00040335  lv_group_set_edge_cb                        
00040347  lv_group_set_editing                        
000403bf  lv_group_set_refocus_policy                 
000403dd  lv_group_set_wrap                           
00040403  lv_group_get_focused                        
00040425  lv_group_get_focus_cb                       
0004043b  lv_group_get_edge_cb                        
00040451  lv_group_get_editing                        
0004047b  lv_group_get_wrap                           
000404a5  lv_group_get_obj_count                      
0004070d  lv_spinbox_create                           
00040725  lv_spinbox_set_value                        
0004075d  lv_spinbox_set_rollover                     
00040783  lv_spinbox_set_digit_format                 
00040849  lv_spinbox_set_step                         
00040861  lv_spinbox_set_range                        
000408af  lv_spinbox_set_cursor_pos                   
0004092d  lv_spinbox_set_digit_step_direction         
00040955  lv_spinbox_get_value                        
00040967  lv_spinbox_get_step                         
00040979  lv_spinbox_step_next                        
000409a9  lv_spinbox_step_prev                        
00040a11  lv_spinbox_get_rollover                     
00040a2d  lv_spinbox_increment                        
00040ab7  lv_spinbox_decrement                        
00041017  _lv_anim_core_init                          
0004103b  lv_anim_init                                
00041079  lv_anim_start                               
0004112d  lv_anim_get_playtime                        
000411a7  lv_anim_del                                 
00041225  lv_anim_del_all                             
00041233  lv_anim_get                                 
00041275  lv_anim_get_timer                           
00041289  lv_anim_count_running                       
000412c9  lv_anim_speed_to_time                       
0004130d  lv_anim_refr_now                            
0004131d  lv_anim_path_linear                         
00041363  lv_anim_path_ease_in                        
000413bd  lv_anim_path_ease_out                       
0004141b  lv_anim_path_ease_in_out                    
00041477  lv_anim_path_overshoot                      
000414d9  lv_anim_path_bounce                         
00041637  lv_anim_path_step                           
000418e5  xSendDHCPEvent                              
0004190d  vSetMultiCastIPv4MacAddress                 
00041969  pxDuplicateNetworkBufferWithDescriptor      
00041a01  pxPacketBuffer_to_NetworkBuffer             
00041a0f  pxUDPPayloadBuffer_to_NetworkBuffer         
00041a1d  xIsCallingFromIPTask                        
00041a41  prvProcessNetworkDownEvent                  
00041a81  vPreCheckConfigs                            
00041a83  usGenerateProtocolChecksum                  
00041d29  usGenerateChecksum                          
00041f05  FreeRTOS_strerror_r                         
00041fe9  FreeRTOS_max_int32                          
00042003  FreeRTOS_max_uint32                         
0004201d  FreeRTOS_max_size_t                         
00042037  FreeRTOS_min_int32                          
00042051  FreeRTOS_min_uint32                         
0004206b  FreeRTOS_min_size_t                         
00042085  FreeRTOS_round_up                           
000420af  FreeRTOS_round_down                         
000420d3  ulChar2u32                                  
000420f9  usChar2u16                                  
00042275  lv_draw_label_dsc_init                      
000422c5  lv_draw_label                               
000429c1  lv_draw_letter                              
00042a7d  eARPProcessPacket                           
00042c89  xIsIPInARPCache                             
00042cd9  xCheckRequiresARPResolution                 
00042d3d  vARPRefreshCacheEntry                       
00042ef1  eARPGetCacheEntry                           
00043057  vARPAgeCache                                
0004311f  vARPSendGratuitous                          
0004312f  FreeRTOS_OutputARPRequest                   
00043195  xARPWaitResolution                          
0004321d  vARPGenerateRequestPacket                   
0004328f  FreeRTOS_ClearARP                           
000432a9  xCheckLoopback                              
000433af  vPhyInitialise                              
000433cf  xPhyDiscover                                
00043599  xPhyConfigure                               
00043781  xPhyFixedValue                              
000437f9  xPhyStartAutoNegotiation                    
00043a9f  xPhyCheckLinkStatus                         
00043db1  lv_style_init                               
00043dbf  lv_style_reset                              
00043de9  lv_style_register_prop                      
00043e83  lv_style_get_num_custom_props               
00043e8d  lv_style_remove_prop                        
00043ff1  lv_style_set_prop                           
0004400b  lv_style_set_prop_meta                      
0004402f  lv_style_get_prop                           
00044051  lv_style_transition_dsc_init                
00044095  lv_style_prop_get_default                   
0004415f  lv_style_is_empty                           
0004417b  _lv_style_get_prop_group                    
000441a7  _lv_style_prop_lookup_flags                 
00044469  xIsDHCPSocket                               
00044489  vDHCPSetPreferredIPAddress                  
000444a1  eGetDHCPState                               
000444a7  vDHCPProcess                                
00044cf1  lv_style_set_width                          
00044d0b  lv_style_set_min_width                      
00044d25  lv_style_set_max_width                      
00044d3f  lv_style_set_height                         
00044d59  lv_style_set_min_height                     
00044d73  lv_style_set_max_height                     
00044d8d  lv_style_set_x                              
00044da7  lv_style_set_y                              
00044dc1  lv_style_set_align                          
00044ddb  lv_style_set_transform_width                
00044df5  lv_style_set_transform_height               
00044e0f  lv_style_set_translate_x                    
00044e29  lv_style_set_translate_y                    
00044e43  lv_style_set_transform_zoom                 
00044e5d  lv_style_set_transform_angle                
00044e77  lv_style_set_transform_pivot_x              
00044e91  lv_style_set_transform_pivot_y              
00044eab  lv_style_set_pad_top                        
00044ec5  lv_style_set_pad_bottom                     
00044edf  lv_style_set_pad_left                       
00044ef9  lv_style_set_pad_right                      
00044f13  lv_style_set_pad_row                        
00044f2d  lv_style_set_pad_column                     
00044f47  lv_style_set_bg_color                       
00044f63  lv_style_set_bg_opa                         
00044f7d  lv_style_set_bg_grad_color                  
00044f99  lv_style_set_bg_grad_dir                    
00044fb3  lv_style_set_bg_main_stop                   
00044fcd  lv_style_set_bg_grad_stop                   
00044fe7  lv_style_set_bg_grad                        
00044ffd  lv_style_set_bg_dither_mode                 
00045017  lv_style_set_bg_img_src                     
0004502d  lv_style_set_bg_img_opa                     
00045047  lv_style_set_bg_img_recolor                 
00045063  lv_style_set_bg_img_recolor_opa             
0004507d  lv_style_set_bg_img_tiled                   
00045097  lv_style_set_border_color                   
000450b3  lv_style_set_border_opa                     
000450cd  lv_style_set_border_width                   
000450e7  lv_style_set_border_side                    
00045101  lv_style_set_border_post                    
0004511b  lv_style_set_outline_width                  
00045135  lv_style_set_outline_color                  
00045151  lv_style_set_outline_opa                    
0004516b  lv_style_set_outline_pad                    
00045185  lv_style_set_shadow_width                   
0004519f  lv_style_set_shadow_ofs_x                   
000451b9  lv_style_set_shadow_ofs_y                   
000451d3  lv_style_set_shadow_spread                  
000451ed  lv_style_set_shadow_color                   
00045209  lv_style_set_shadow_opa                     
00045223  lv_style_set_img_opa                        
0004523d  lv_style_set_img_recolor                    
00045259  lv_style_set_img_recolor_opa                
00045273  lv_style_set_line_width                     
0004528d  lv_style_set_line_dash_width                
000452a7  lv_style_set_line_dash_gap                  
000452c1  lv_style_set_line_rounded                   
000452db  lv_style_set_line_color                     
000452f7  lv_style_set_line_opa                       
00045311  lv_style_set_arc_width                      
0004532b  lv_style_set_arc_rounded                    
00045345  lv_style_set_arc_color                      
00045361  lv_style_set_arc_opa                        
0004537b  lv_style_set_arc_img_src                    
00045391  lv_style_set_text_color                     
000453ad  lv_style_set_text_opa                       
000453c7  lv_style_set_text_font                      
000453dd  lv_style_set_text_letter_space              
000453f7  lv_style_set_text_line_space                
00045411  lv_style_set_text_decor                     
0004542b  lv_style_set_text_align                     
00045445  lv_style_set_radius                         
0004545f  lv_style_set_clip_corner                    
00045479  lv_style_set_opa                            
00045493  lv_style_set_color_filter_dsc               
000454a9  lv_style_set_color_filter_opa               
000454c3  lv_style_set_anim                           
000454d9  lv_style_set_anim_time                      
000454ef  lv_style_set_anim_speed                     
00045505  lv_style_set_transition                     
0004551b  lv_style_set_blend_mode                     
00045535  lv_style_set_layout                         
0004554f  lv_style_set_base_dir                       
000455a7  lv_calendar_create                          
000455bf  lv_calendar_set_day_names                   
000455ff  lv_calendar_set_today_date                  
00045637  lv_calendar_set_highlighted_dates           
00045667  lv_calendar_set_showed_date                 
0004587b  lv_calendar_get_btnmatrix                   
00045891  lv_calendar_get_today_date                  
000458a3  lv_calendar_get_showed_date                 
000458b5  lv_calendar_get_highlighted_dates           
000458c7  lv_calendar_get_highlighted_dates_num       
000458d9  lv_calendar_get_pressed_date                
00045e6d  lv_disp_drv_init                            
00045eed  lv_disp_draw_buf_init                       
00045f21  lv_disp_drv_register                        
000460d1  lv_disp_drv_update                          
000461e9  lv_disp_remove                              
0004629b  lv_disp_set_default                         
000462ab  lv_disp_get_default                         
000462b1  lv_disp_get_hor_res                         
000462f5  lv_disp_get_ver_res                         
00046335  lv_disp_get_physical_hor_res                
000463a1  lv_disp_get_physical_ver_res                
00046411  lv_disp_get_offset_x                        
0004647d  lv_disp_get_offset_y                        
000464ed  lv_disp_get_antialiasing                    
00046525  lv_disp_get_dpi                             
00046547  lv_disp_flush_ready                         
00046561  lv_disp_flush_is_last                       
00046577  lv_disp_get_next                            
00046591  lv_disp_get_draw_buf                        
000465a1  lv_disp_set_rotation                        
000465d7  lv_disp_get_rotation                        
00046785  lv_draw_sw_img_decoded                      
00046ea5  lv_obj_del                                  
00046f31  lv_obj_clean                                
00046f83  lv_obj_del_delayed                          
00046fc5  lv_obj_del_anim_ready_cb                    
00046fd3  lv_obj_del_async                            
00046fe1  lv_obj_set_parent                           
00047107  lv_obj_move_to_index                        
000471e9  lv_obj_swap                                 
00047291  lv_obj_get_screen                           
000472af  lv_obj_get_disp                             
00047317  lv_obj_get_parent                           
0004732d  lv_obj_get_child                            
00047385  lv_obj_get_child_cnt                        
0004739f  lv_obj_get_index                            
000473e7  lv_obj_tree_walk                            
000476e5  lv_draw_arc_dsc_init                        
00047707  lv_draw_arc                                 
0004774f  lv_draw_arc_get_area                        
00047e4d  lv_tabview_create                           
00047e7d  lv_tabview_add_tab                          
00047fdf  lv_tabview_rename_tab                       
00048055  lv_tabview_set_act                          
00048149  lv_tabview_get_tab_act                      
0004815b  lv_tabview_get_content                      
00048169  lv_tabview_get_tab_btns                     
00048555  xNetworkInterfaceInitialise                 
000486b9  xNetworkInterfaceOutput                     
0004872d  vNetworkInterfaceAllocateRAMToBuffers       
00048911  freertos_tcp_ethernet_int                   
00048ddb  lv_color_fill                               
00048eb1  lv_color_lighten                            
00048ecd  lv_color_darken                             
00048ee9  lv_color_change_lightness                   
00048f39  lv_color_hsv_to_rgb                         
000490eb  lv_color_rgb_to_hsv                         
000492b5  lv_color_to_hsv                             
000492d7  lv_palette_main                             
000492f7  lv_palette_lighten                          
00049345  lv_palette_darken                           
00049743  lv_gradient_free_cache                      
0004975f  lv_gradient_set_cache_size                  
00049793  lv_gradient_get                             
0004987d  lv_gradient_calculate                       
00049a51  lv_gradient_cleanup                         
00049bd3  lv_checkbox_create                          
00049beb  lv_checkbox_set_text                        
00049c51  lv_checkbox_set_text_static                 
00049c8f  lv_checkbox_get_text                        
0004a1cd  lv_draw_img_dsc_init                        
0004a1fb  lv_draw_img                                 
0004a263  lv_img_cf_get_px_size                       
0004a309  lv_img_cf_is_chroma_keyed                   
0004a33f  lv_img_cf_has_alpha                         
0004a3ad  lv_img_src_get_type                         
0004a405  lv_draw_img_decoded                         
0004a77b  lv_draw_sw_letter                           
0004ae73  lv_switch_create                            
0004b345  vSocketCloseNextTime                        
0004b369  xTCPSocketCheck                             
0004b3cd  vTCPStateChange                             
0004b5ed  xProcessReceivedTCPPacket                   
0004b87d  xTCPCheckNewClient                          
0004b8fd  lv_memcpy_builtin                           
0004bd39  lv_memset_builtin                           
0004be3d  lv_strlen_builtin                           
0004be61  lv_strncpy_builtin                          
0004bea5  lv_font_get_bitmap_fmt_txt                  
0004beff  lv_font_get_glyph_dsc_fmt_txt               
0004c001  _lv_font_clean_up_fmt_txt                   
0004c411  lv_draw_sw_polygon                          
0004c949  lv_keyboard_create                          
0004c961  lv_keyboard_set_textarea                    
0004c995  lv_keyboard_set_mode                        
0004c9c1  lv_keyboard_set_popovers                    
0004c9fb  lv_keyboard_set_map                         
0004ca2d  lv_keyboard_get_textarea                    
0004ca3f  lv_keyboard_get_mode                        
0004ca53  lv_btnmatrix_get_popovers                   
0004ca79  lv_keyboard_def_event_cb                    
0004ce65  UARTStdioConfig                             
0004ceab  UARTwrite                                   
0004cefb  UARTgets                                    
0004cfb5  UARTgetc                                    
0004cfdd  UARTvprintf                                 
0004d2d7  UARTprintf                                  
0004d4a1  ST7735_init                                 
0004d4c3  ST7735_flush                                
0004d5b1  ST7735_FillRectangle                        
0004d6c9  ST7735_DrawPixel                            
0004d72d  ST7735_SetAddressWindow                     
0004d905  lv_led_create                               
0004d91d  lv_led_set_color                            
0004d939  lv_led_set_brightness                       
0004d989  lv_led_on                                   
0004d997  lv_led_off                                  
0004d9a5  lv_led_toggle                               
0004d9cb  lv_led_get_brightness                       
0004dc25  _lv_ll_init                                 
0004dc4d  _lv_ll_ins_head                             
0004dc9f  _lv_ll_ins_prev                             
0004dd1d  _lv_ll_ins_tail                             
0004dd6f  _lv_ll_remove                               
0004de13  _lv_ll_clear                                
0004de4b  _lv_ll_chg_list                             
0004dee3  _lv_ll_get_head                             
0004def9  _lv_ll_get_tail                             
0004df0f  _lv_ll_get_next                             
0004df2f  _lv_ll_get_prev                             
0004df4d  _lv_ll_get_len                              
0004df7b  _lv_ll_move_before                          
0004dff7  _lv_ll_is_empty                             
0004e07d  lv_trigo_sin                                
0004e149  lv_bezier3                                  
0004e1cf  lv_sqrt                                     
0004e21f  lv_atan2                                    
0004e391  lv_pow                                      
0004e3f3  lv_map                                      
0004e479  lv_rand                                     
0004e591  lv_draw_sw_init_ctx                         
0004e60b  lv_draw_sw_deinit_ctx                       
0004e61f  lv_draw_sw_wait_for_finish                  
0004e629  lv_draw_sw_buffer_copy                      
0004e71d  lv_draw_sw_buffer_convert                   
0004e905  xEventGroupCreate                           
0004e925  xEventGroupSync                             
0004e9f9  xEventGroupWaitBits                         
0004eae7  xEventGroupClearBits                        
0004eb13  xEventGroupGetBitsFromISR                   
0004eb43  xEventGroupSetBits                          
0004ec11  vEventGroupDelete                           
0004ec45  vEventGroupSetBitsCallback                  
0004ec55  vEventGroupClearBitsCallback                
0004ec9b  uxEventGroupGetNumber                       
0004ecbb  vEventGroupSetNumber                        
0004eccd  pvPortMalloc                                
0004edfb  vPortFree                                   
0004ee55  xPortGetFreeHeapSize                        
0004ee5b  xPortGetMinimumEverFreeHeapSize             
0004ee61  vPortInitialiseBlocks                       
0004efad  vPortGetHeapStats                           
0004f085  lv_line_create                              
0004f09d  lv_line_set_points                          
0004f0cd  lv_line_set_y_invert                        
0004f10f  lv_line_get_y_invert                        
0004f40b  prvCheckOptions                             
0004f5e9  prvCheckRxData                              
0004f6b5  prvStoreRxData                              
0004f799  uxStreamBufferSpace                         
0004f7cd  uxStreamBufferDistance                      
0004f7ff  uxStreamBufferGetSpace                      
0004f81b  uxStreamBufferFrontSpace                    
0004f837  uxStreamBufferGetSize                       
0004f853  uxStreamBufferMidSpace                      
0004f86f  vStreamBufferClear                          
0004f891  vStreamBufferMoveMid                        
0004f8df  xStreamBufferLessThenEqual                  
0004f90d  uxStreamBufferGetPtr                        
0004f943  uxStreamBufferAdd                           
0004fa31  uxStreamBufferGet                           
0004fb05  PinoutSet                                   
0004fc3d  LEDWrite                                    
0004fccd  LEDRead                                     
0004fd29  ButtonsPoll                                 
0004fdc9  ButtonsInit                                 
0004fe6d  _lv_timer_core_init                         
0004fe7f  lv_timer_handler                            
0004ffbd  lv_timer_create_basic                       
0004ffcd  lv_timer_create                             
0005002b  lv_timer_set_cb                             
0005003d  lv_timer_del                                
00050057  lv_timer_pause                              
0005006b  lv_timer_resume                             
0005007f  lv_timer_set_period                         
00050091  lv_timer_ready                              
000500a7  lv_timer_set_repeat_count                   
000500b9  lv_timer_reset                              
000500c7  lv_timer_enable                             
000500db  lv_timer_get_idle                           
000500e1  lv_timer_get_next                           
000501c1  lv_tileview_create                          
000501d9  lv_tileview_add_tile                        
00050215  lv_obj_set_tile                             
00050267  lv_obj_set_tile_id                          
00050309  lv_tileview_get_tile_act                    
0005050d  FreeRTOS_CLIRegisterCommand                 
0005054b  FreeRTOS_CLIProcessCommand                  
00050631  FreeRTOS_CLIGetOutputBuffer                 
00050635  FreeRTOS_CLIGetParameter                    
00050843  lv_obj_class_create_obj                     
00050973  lv_obj_class_init_obj                       
000509eb  _lv_obj_destruct                            
00050a21  lv_obj_is_editable                          
00050a69  lv_obj_is_group_def                         
00050b73  lTCPWindowRxCheck                           
00050bb9  lTCPWindowTxAdd                             
00050c55  ulTCPWindowTxGet                            
00050cd7  xTCPWindowTxDone                            
00050d19  xTCPWindowTxHasData                         
00050d91  ulTCPWindowTxAck                            
00050e03  xTCPWindowRxEmpty                           
00050e15  vTCPWindowDestroy                           
00050e25  main                                        
00050ff5  vApplicationMallocFailedHook                
00050ffd  vApplicationIdleHook                        
00050fff  vApplicationStackOverflowHook               
0005100b  vApplicationTickHook                        
00051015  vApplicationIPNetworkEventHook              
00051033  xApplicationGetRandomNumber                 
00051043  ulApplicationGetNextSequenceNumber          
000510ed  vRegisterCLICommands                        
000513f3  lv_draw_sw_layer_create                     
00051539  lv_draw_sw_layer_adjust                     
00051589  lv_draw_sw_layer_blend                      
00051627  lv_draw_sw_layer_destroy                    
00051639  xCalculateSleepTime                         
00051691  vCheckNetworkTimers                         
00051757  vIPTimerStartARPResolution                  
0005177d  vTCPTimerReload                             
0005178b  vARPTimerReload                             
00051799  vDHCPTimerReload                            
000517ff  vIPSetTCPTimerExpiredState                  
0005182d  vIPSetARPTimerEnableState                   
00051851  vIPSetARPResolutionTimerEnableState         
00051875  vIPSetDHCPTimerEnableState                  
00051b5d  lv_calendar_header_arrow_create             
00051d8b  xNetworkBuffersInitialise                   
00051e1f  pxGetNetworkBufferWithDescriptor            
00051eab  pxNetworkBufferGetFromISR                   
00051efb  vNetworkBufferReleaseFromISR                
00051f33  vReleaseNetworkBufferAndDescriptor          
00051f7d  uxGetMinimumFreeNetworkBuffers              
00051f83  uxGetNumberOfFreeNetworkBuffers             
00051f89  pxResizeNetworkBufferWithDescriptor         
00051fb5  SysCtlClockFreqSet                          
000521b5  vProcessGeneratedUDPPacket                  
000522f7  xProcessReceivedUDPPacket                   
000523ab  lv_indev_drv_init                           
000523e5  lv_indev_drv_register                       
00052443  lv_indev_drv_update                         
000524b3  lv_indev_delete                             
000524e9  lv_indev_get_next                           
00052503  _lv_indev_read                              
00052745  __aeabi_dsub                                
0005274f  __aeabi_dadd                                
000528fd  lv_calendar_header_dropdown_create          
00052aad  lv_mem_init_builtin                         
00052abf  lv_mem_deinit_builtin                       
00052acf  lv_mem_monitor_builtin                      
00052b45  lv_malloc_builtin                           
00052b79  lv_realloc_builtin                          
00052b8d  lv_free_builtin                             
00052bbb  lv_mem_test_builtin                         
00052cb9  lv_spinner_create                           
00052db5  GPIOPadConfigSet                            
00052fd5  lv_draw_rect_dsc_init                       
00053055  lv_draw_rect                                
00053089  lv_win_create                               
000530ad  lv_win_add_title                            
000530e5  lv_win_add_btn                              
00053133  lv_win_get_header                           
00053141  lv_win_get_content                          
000531f3  prvDisplayTask                              
00053321  lv_font_get_glyph_bitmap                    
0005333b  lv_font_get_glyph_dsc                       
00053443  lv_font_get_glyph_width                     
00053479  lv_theme_get_from_obj                       
00053497  lv_theme_apply                              
000534b7  lv_theme_set_parent                         
000534c9  lv_theme_set_apply_cb                       
000534db  lv_theme_get_font_small                     
000534f5  lv_theme_get_font_normal                    
0005350f  lv_theme_get_font_large                     
00053529  lv_theme_get_color_primary                  
0005354f  lv_theme_get_color_secondary                
000536e5  pxPortInitialiseStack                       
0005374f  xPortStartScheduler                         
00053785  vPortEndScheduler                           
00053787  vPortEnterCritical                          
000537a7  vPortExitCritical                           
000537bd  xPortSysTickHandler                         
000537e3  vPortSetupTimerInterrupt                    
00053821  __aeabi_ddiv                                
00053959  xSequenceLessThan                           
0005397b  xSequenceGreaterThan                        
0005399d  vTCPWindowCreate                            
000539cf  vTCPWindowInit                              
00053a85  vListInitialise                             
00053ab5  vListInitialiseItem                         
00053ac5  vListInsertEnd                              
00053b01  vListInsert                                 
00053b67  uxListRemove                                
00053ce7  lv_draw_layer_create                        
00053d71  lv_draw_layer_adjust                        
00053d93  lv_draw_layer_blend                         
00053db1  lv_draw_layer_destroy                       
00053df9  SysCtlClockGet                              
00053f11  ldexp                                       
00053f11  ldexpl                                      
00053f11  scalbn                                      
00053f11  scalbnl                                     
00054021  __aeabi_dmul                                
0005412f  _lv_gc_clear_roots                          
0005420d  lv_malloc                                   
0005422b  lv_free                                     
00054243  lv_realloc                                  
0005427d  lv_memcpy                                   
00054291  lv_memset                                   
000542a9  lv_strlen                                   
000542b5  lv_strncpy                                  
000542c9  lv_mem_test                                 
000542df  lv_mem_monitor                              
000542fd  lv_async_call                               
0005434b  lv_async_call_cancel                        
000543e9  ulPortGetIPSR                               
00054401  xPortPendSVHandler                          
00054461  vPortSVCHandler                             
00054481  vPortStartFirstTask                         
000544a5  vPortEnableVFP                              
00054521  lv_draw_line_dsc_init                       
00054543  lv_draw_line                                
00054571  ProcessICMPPacket                           
000546eb  _lv_img_cache_open                          
0005475b  lv_img_cache_set_size                       
00054767  lv_img_cache_invalidate_src                 
00054775  __aeabi_memcpy                              
00054775  __aeabi_memcpy4                             
00054775  __aeabi_memcpy8                             
00054775  memcpy                                      
00054811  __aeabi_uldivmod                            
000548a7  __aeabi_cdcmpeq                             
000548a7  __aeabi_cdcmple                             
0005492d  __aeabi_cdrcmple                            
000549b3  __aeabi_memclr                              
000549b3  __aeabi_memclr4                             
000549b3  __aeabi_memclr8                             
000549b5  __aeabi_memset                              
000549b5  __aeabi_memset4                             
000549b5  __aeabi_memset8                             
000549bb  memset                                      
00054a2d  EMACInit                                    
00054aa5  lv_tick_inc                                 
00054abf  lv_tick_get                                 
00054add  lv_tick_elaps                               
00054b19  _lv_utils_bsearch                           
00054bfd  IntEnable                                   
00054c65  __TI_decompress_lzss                        
00054ccd  frexp                                       
00054ccd  frexpl                                      
00054d31  prvSocketSetMSS                             
00054d91  __aeabi_idiv                                
00054d91  __aeabi_idivmod                             
00054e45  __TI_ltoa                                   
00054eed  SysCtlPeripheralReset                       
00054f3d  lv_draw_transform                           
00054f8d  GPIOPinConfigure                            
00054fd9  atoi                                        
00055025  snprintf                                    
000550b9  __aeabi_d2iz                                
00055101  UARTConfigSetExpClk                         
00055149  __TI_auto_init_nobinit_nopinit              
0005518d  __aeabi_uidiv                               
0005518d  __aeabi_uidivmod                            
000551cd  sprintf                                     
0005524b  EMACIntEnable                               
00055285  EMACConfigSet                               
000552bd  SysCtlPeripheralPresent                     
000552f5  SysCtlPeripheralReady                       
0005532d  lv_btn_create                               
00055365  strncpy                                     
0005539d  EMACConfigGet                               
000553d1  EMACIntClear                                
00055405  SysCtlPeripheralEnable                      
00055439  _c_int00_noargs                             
0005546d  rand                                        
000554a1  EMACAddrSet                                 
00055501  prvCommandInterpreterTask                   
00055531  __aeabi_i2d                                 
0005555f  EMACIntStatus                               
0005558b  GPIODirModeSet                              
000555b7  strncmp                                     
000555e3  memmove                                     
0005560b  EMACPHYRead                                 
00055631  EMACPHYWrite                                
00055659  IntPrioritySet                              
0005567d  memcmp                                      
000556a1  UARTDisable                                 
000556e1  strcat                                      
000556ff  memccpy                                     
0005571b  GPIOPinTypeGPIOOutput                       
00055735  copysign                                    
00055735  copysignl                                   
0005577f  lv_draw_init                                
00055781  lv_draw_wait_for_finish                     
00055797  __aeabi_lmul                                
000557af  strcmp                                      
000557c7  EMACRxEnable                                
000557dd  EMACTxEnable                                
000557f3  GPIOPinTypeEthernetLED                      
00055809  GPIOPinTypeGPIOInput                        
0005581f  GPIOPinTypeUART                             
00055835  GPIOPinTypeUSBAnalog                        
0005584b  GPIOPinTypeUSBDigital                       
00055861  strchr                                      
00055879  FlashUserGet                                
0005588d  UARTEnable                                  
000558a1  strcpy                                      
000558b5  strlen                                      
000558c9  wcslen                                      
000558dd  EMACFrameFilterSet                          
000558ed  IntMasterDisable                            
000558fd  __TI_decompress_none                        
0005590b  prvModbusTask                               
00055919  CPUcpsid                                    
00055925  __TI_zero_init                              
00055931  ResetISR                                    
0005593d  SSIDataPut                                  
00055947  UARTCharGet                                 
00055951  UARTCharPut                                 
00055965  EMACPowerManagementStatusGet                
0005596d  EMACTxDMAPollDemand                         
00055975  SSIBusy                                     
0005597d  __aeabi_errno_addr                          
00055985  EMACRxDMADescriptorListSet                  
0005598b  EMACTxDMADescriptorListSet                  
00055991  GPIOPinRead                                 
00055997  GPIOPinWrite                                
0005599d  UARTClockSourceSet                          
000559a3  _system_pre_init                            
000559a7  C$$EXIT                                     
000559a7  abort                                       
0005941c  _ctypes_                                    
0005951d  _lv_bpp8_opa_table                          
00059d20  _lv_style_builtin_prop_flag_lookup_table    
0005a0a9  _lv_bpp1_opa_table                          
0005a1bc  lv_arc_class                                
0005a1d8  lv_bar_class                                
0005a1f4  lv_btn_class                                
0005a210  lv_btnmatrix_class                          
0005a22c  lv_calendar_class                           
0005a248  lv_calendar_header_arrow_class              
0005a264  lv_calendar_header_dropdown_class           
0005a280  lv_chart_class                              
0005a29c  lv_checkbox_class                           
0005a2b8  lv_colorwheel_class                         
0005a2d4  lv_dropdown_class                           
0005a2f0  lv_dropdownlist_class                       
0005a30c  lv_font_montserrat_14                       
0005a328  lv_img_class                                
0005a344  lv_keyboard_class                           
0005a360  lv_label_class                              
0005a37c  lv_led_class                                
0005a398  lv_line_class                               
0005a3b4  lv_list_btn_class                           
0005a3d0  lv_list_class                               
0005a3ec  lv_list_text_class                          
0005a408  lv_menu_class                               
0005a424  lv_menu_cont_class                          
0005a440  lv_menu_main_cont_class                     
0005a45c  lv_menu_main_header_cont_class              
0005a478  lv_menu_page_class                          
0005a494  lv_menu_section_class                       
0005a4b0  lv_menu_separator_class                     
0005a4cc  lv_menu_sidebar_cont_class                  
0005a4e8  lv_menu_sidebar_header_cont_class           
0005a504  lv_meter_class                              
0005a520  lv_msgbox_backdrop_class                    
0005a53c  lv_msgbox_class                             
0005a558  lv_obj_class                                
0005a574  lv_roller_class                             
0005a590  lv_roller_label_class                       
0005a5ac  lv_slider_class                             
0005a5c8  lv_spinbox_class                            
0005a5e4  lv_spinner_class                            
0005a600  lv_switch_class                             
0005a61c  lv_table_class                              
0005a638  lv_tabview_class                            
0005a654  lv_textarea_class                           
0005a670  lv_tileview_class                           
0005a68c  lv_tileview_tile_class                      
0005a6a8  lv_win_class                                
0005a796  _lv_bpp4_opa_table                          
0005a888  xBroadcastMACAddress                        
0005a8bc  _lv_bpp2_opa_table                          
0005a8c0  xBufferAllocFixedSize                       
0005a8c8  ulMaxSyscallInterruptPriority               
0005a8cc  uxTopUsedPriority                           
0005a8d4  xPHYProperties                              
0005a9ec  __TI_Handler_Table_Base                     
0005a9f8  __TI_Handler_Table_Limit                    
0005aa00  __TI_CINIT_Base                             
0005aa10  __TI_CINIT_Limit                            
20000000  __start___llvm_prf_cnts                     
20000000  __stop___llvm_prf_cnts                      
200267e0  _lv_draw_mask_list                          
200268d8  _lv_circle_cache                            
20026948  xQueueRegistry                              
20026a60  _lv_img_cache_single                        
20026b90  xBoundTCPSocketsList                        
20026ba4  xBoundUDPSocketsList                        
20026c14  _lv_anim_ll                                 
20026c20  _lv_disp_ll                                 
20026c2c  _lv_fsdrv_ll                                
20026c38  _lv_group_ll                                
20026c44  _lv_img_decoder_ll                          
20026c50  _lv_indev_ll                                
20026c5c  _lv_obj_style_trans_ll                      
20026c68  _lv_timer_ll                                
20026c74  _subs_ll                                    
20026cfc  _lv_grad_cache_mem                          
20026d00  _lv_layout_list                             
20026d04  _lv_style_custom_prop_flag_lookup_table     
20026d08  _lv_theme_basic_styles                      
20026d0c  _lv_theme_default_styles                    
20026d10  _lv_timer_act                               
20026d14  g_ui32SysClock                              
20026d18  xProcessedTCPMessage                        
20026d2a  LV_LAYOUT_FLEX                              
20026d2c  LV_LAYOUT_GRID                              
20026d2e  LV_STYLE_FLEX_CROSS_PLACE                   
20026d30  LV_STYLE_FLEX_FLOW                          
20026d32  LV_STYLE_FLEX_GROW                          
20026d34  LV_STYLE_FLEX_MAIN_PLACE                    
20026d36  LV_STYLE_FLEX_TRACK_PLACE                   
20026d38  LV_STYLE_GRID_CELL_COLUMN_POS               
20026d3a  LV_STYLE_GRID_CELL_COLUMN_SPAN              
20026d3c  LV_STYLE_GRID_CELL_ROW_POS                  
20026d3e  LV_STYLE_GRID_CELL_ROW_SPAN                 
20026d40  LV_STYLE_GRID_CELL_X_ALIGN                  
20026d42  LV_STYLE_GRID_CELL_Y_ALIGN                  
20026d44  LV_STYLE_GRID_COLUMN_ALIGN                  
20026d46  LV_STYLE_GRID_COLUMN_DSC_ARRAY              
20026d48  LV_STYLE_GRID_ROW_ALIGN                     
20026d4a  LV_STYLE_GRID_ROW_DSC_ARRAY                 
20026d4c  pxCurrentTCB                                
20026df8  _lv_txt_encoded_size                        
20026dfc  _lv_txt_unicode_to_encoded                  
20026e00  _lv_txt_encoded_conv_wc                     
20026e04  _lv_txt_encoded_next                        
20026e08  _lv_txt_encoded_prev                        
20026e0c  _lv_txt_encoded_get_byte_id                 
20026e10  _lv_txt_encoded_get_char_id                 
20026e14  _lv_txt_get_encoded_length                  
20026e18  pxARPWaitingNetworkBuffer                   
20026e1c  xNetworkEventQueue                          
20026e20  usPacketIdentifier                          
20026e84  xDefaultPartUDPPacketHeader                 
20026e9c  xDefaultAddressing                          
20026eb0  xNetworkAddressing                          
20026f10  _lock                                       
20026f14  _unlock                                     
20026f58  _lv_style_custom_prop_flag_lookup_table_size
20026f7c  xTCPWindowLoggingLevel                      
20026f9c  errno                                       
20026fa8  __stack                                     
200271a8  __STACK_END                                 
200271a8  _sys_memory                                 
20027fa8  __STACK_TOP                                 
ffffffff  __TI_pprof_out_hndl                         
ffffffff  __TI_prof_data_size                         
ffffffff  __TI_prof_data_start                        
ffffffff  __binit__                                   
ffffffff  __c_args__                                  
ffffffff  binit                                       
UNDEFED   __mpu_init                                  
UNDEFED   _system_post_cinit                          

[1646 symbols]
